******************************************************************************
                  TI ARM Linker PC v5.1.6                      
******************************************************************************
>> Linked Wed Jan 14 13:48:34 2015

OUTPUT FILE NAME:   <tcpEcho_TivaTM4C1294NCPDT.out>
ENTRY POINT SYMBOL: "_c_int00"  address: 000106b1


MEMORY CONFIGURATION

         name            origin    length      used     unused   attr    fill
----------------------  --------  ---------  --------  --------  ----  --------
  FLASH                 00000000   00100000  0001728d  000e8d73  R  X
  SRAM                  20000000   00040000  00010b50  0002f4b0  RW X


SEGMENT ALLOCATION MAP

run origin  load origin   length   init length attrs members
----------  ----------- ---------- ----------- ----- -------
00000000    00000000    00017290   00017290    r-x
  00000000    00000000    0000003c   0000003c    r-- .resetVecs
  0000003c    0000003c    000147cc   000147cc    r-x .text
  00014808    00014808    00002405   00002405    r-- .const
  00016c10    00016c10    00000680   00000680    r-- .cinit
20000000    20000000    00000360   00000000    rw-
  20000000    20000000    00000360   00000000    rw- .vecs
20000380    20000380    000107f0   00000000    rw-
  20000380    20000380    0000f548   00000000    rw- .bss
  2000f8c8    2000f8c8    00000aa8   00000000    rw- .data
  20010370    20010370    00000800   00000000    rw- .stack


SECTION ALLOCATION MAP

 output                                  attributes/
section   page    origin      length       input sections
--------  ----  ----------  ----------   ----------------
.bootVecs 
*          0    00000000    00000008     DSECT
                  00000000    00000008     boot.aem4f : boot.oem4f (.bootVecs)

.resetVecs 
*          0    00000000    0000003c     
                  00000000    0000003c     tcpEcho_pem4f.oem4f (.resetVecs)

xdc.meta   0    00000000    0000010a     COPY SECTION
                  00000000    0000010a     tcpEcho_pem4f.oem4f (xdc.meta)

.init_array 
*          0    00000000    00000000     UNINITIALIZED

.text      0    0000003c    000147cc     
                  0000003c    00000ec0     rtsv7M4_T_le_v4SPD16_eabi.lib : _printfi.obj (.text)
                  00000efc    00000c70     stk.aem4f : tcpin.oem4f (.text:TcpInput)
                  00001b6c    000008a0               : tcpout.oem4f (.text:TcpOutput)
                  0000240c    00000424     sysbios.aem4f : BIOS.obj (.text:ti_sysbios_family_arm_m3_Hwi_excDumpRegs__I)
                  00002830    00000408     stk.aem4f : ipout.oem4f (.text:IPTxPacket)
                  00002c38    00000384               : ipin.oem4f (.text:IPRxPacket)
                  00002fbc    0000033c     ti.targets.arm.rtsarm.aem4f : System.oem4f (.text:xdc_runtime_System_doPrint__I)
                  000032f8    00000310     rtsv7M4_T_le_v4SPD16_eabi.lib : lowlev.obj (.text)
                  00003608    00000300     sysbios.aem4f : BIOS.obj (.text:ti_sysbios_knl_Semaphore_pend__E)
                  00003908    000002d4     rtsv7M4_T_le_v4SPD16_eabi.lib : trgdrv.obj (.text)
                  00003bdc    000002d4     sysbios.aem4f : BIOS.obj (.text:ti_sysbios_knl_Task_Instance_finalize__E)
                  00003eb0    000002a0     rtsv7M4_T_le_v4SPD16_eabi.lib : vla_alloc.obj (.text)
                  00004150    0000026b     stk.aem4f : sock.oem4f (.text:SockSet)
                  000043bb    00000001     --HOLE-- [fill = 0]
                  000043bc    0000024c               : ipfrag.oem4f (.text:IPReasm)
                  00004608    00000248     sysbios.aem4f : BIOS.obj (.text:ti_sysbios_family_arm_lm4_Timer_start__E)
                  00004850    00000248                   : BIOS.obj (.text:ti_sysbios_heaps_HeapMem_free__E)
                  00004a98    0000023c     stk.aem4f : icmpin.oem4f (.text:ICMPInput)
                  00004cd4    00000234     sysbios.aem4f : BIOS.obj (.text:ti_sysbios_heaps_HeapMem_alloc__E)
                  00004f08    00000224     stk.aem4f : udp.oem4f (.text:UdpInput)
                  0000512c    0000020c     networkRove.obj (.text:networkFncRove)
                  00005338    0000020c     sysbios.aem4f : BIOS.obj (.text:ti_sysbios_family_arm_m3_Hwi_excHandlerMax__I)
                  00005544    00000204     Boot.aem4f : Boot_sysctl.oem4f (.text:ti_catalog_arm_cortexm4_tiva_ce_Boot_sysCtlClockFreqSetI__I)
                  00005748    000001fe     stk.aem4f : sock.oem4f (.text:SockRecv)
                  00005946    00000002     hal_userled_stub.aem4f : llled.oem4f (.text:LED_TOGGLE)
                  00005948    000001fc     sysbios.aem4f : BIOS.obj (.text:ti_sysbios_knl_Task_sleep__E)
                  00005b44    000001f4     rtsv7M4_T_le_v4SPD16_eabi.lib : ull_div_t2.obj (.text)
                  00005d38    000001e4     sysbios.aem4f : BIOS.obj (.text:ti_sysbios_knl_Task_Instance_init__E)
                  00005f1c    000001c0     rtsv7M4_T_le_v4SPD16_eabi.lib : fopen.obj (.text)
                  000060dc    000001b8     emac_tivaware.aem4f : EMACSnow.oem4f (.text:EMACSnow_NIMUInit)
                  00006294    000001b6     rtsv7M4_T_le_v4SPD16_eabi.lib : fd_add_t2.obj (.text)
                  0000644a    00000002     stk.aem4f : nat.oem4f (.text:NatMsg)
                  0000644c    000001b4               : lliout.oem4f (.text:LLITxIpPacket)
                  00006600    00000198               : lliin.oem4f (.text:LLIRxPacket)
                  00006798    00000198     os.aem4f : mem.oem4f (.text:mmAlloc)
                  00006930    00000194     stk.aem4f : sock.oem4f (.text:SockNew)
                  00006ac4    00000194     sysbios.aem4f : BIOS.obj (.text:ti_sysbios_knl_Task_setPri__E)
                  00006c58    00000190     stk.aem4f : igmp.oem4f (.text:IGMPInput)
                  00006de8    00000170               : rtc.oem4f (.text:RTCReport)
                  00006f58    00000168     sysbios.aem4f : BIOS.obj (.text:ti_sysbios_family_arm_m3_Hwi_excBusFault__I)
                  000070c0    00000166     stk.aem4f : sb.oem4f (.text:SBRead)
                  00007226    00000002     os.aem4f : task.oem4f (.text:_TaskInit)
                  00007228    00000164     stk.aem4f : sock.oem4f (.text:SockConnect)
                  0000738c    00000148     sysbios.aem4f : BIOS.obj (.text:ti_sysbios_family_arm_m3_Hwi_dispatchC__I)
                  000074d4    00000148                   : BIOS.obj (.text:ti_sysbios_family_arm_m3_Hwi_excUsageFault__I)
                  0000761c    00000144     stk.aem4f : bind.oem4f (.text:BindNew)
                  00007760    00000144     sysbios.aem4f : BIOS.obj (.text:ti_sysbios_knl_Semaphore_post__E)
                  000078a4    00000140     nettool_ipv4.aem4f : config.oem4f (.text:CfgAddEntry)
                  000079e4    00000140     netctrl_min_ipv4.aem4f : netctrl.oem4f (.text:NC_NetStart)
                  00007b24    00000140     stk.aem4f : tcp.oem4f (.text:TcpTimeoutCheck)
                  00007c64    00000140     sysbios.aem4f : BIOS.obj (.text:ti_sysbios_knl_Clock_workFunc__E)
                  00007da4    0000013c     stk.aem4f : sock.oem4f (.text:SockSend)
                  00007ee0    00000138     sysbios.aem4f : BIOS.obj (.text:ti_sysbios_heaps_HeapMem_Instance_init__E)
                  00008018    00000138                   : BIOS.obj (.text:ti_sysbios_knl_Task_exit__E)
                  00008150    00000136     rtsv7M4_T_le_v4SPD16_eabi.lib : fd_div_t2.obj (.text)
                  00008286    00000002     os.aem4f : task.oem4f (.text:_TaskShutdown)
                  00008288    00000134     rtsv7M4_T_le_v4SPD16_eabi.lib : fputs.obj (.text)
                  000083bc    00000134     sysbios.aem4f : BIOS.obj (.text:ti_sysbios_family_arm_m3_Hwi_excMemFault__I)
                  000084f0    00000130     driverlib.lib : gpio.obj (.text:GPIOPadConfigSet)
                  00008620    00000130     stk.aem4f : icmp.oem4f (.text:ICMPGenPacket)
                  00008750    0000012c     EK_TM4C1294XL.obj (.text:EK_TM4C1294XL_initEMAC)
                  0000887c    00000128     stk.aem4f : udp.oem4f (.text:UdpOutput)
                  000089a4    00000128     sysbios.aem4f : BIOS.obj (.text:ti_sysbios_knl_Swi_run__I)
                  00008acc    00000124     stk.aem4f : sockpcb.oem4f (.text:SockPcbResolve)
                  00008bf0    00000124     tcpEcho_pem4f.oem4f (.text:ti_ndk_config_Global_stackThread)
                  00008d14    00000124     sysbios.aem4f : BIOS.obj (.text:ti_sysbios_knl_Clock_Instance_init__E)
                  00008e38    00000120     nettool_ipv4.aem4f : dhcpmain.oem4f (.text:DHCPOpen)
                  00008f58    00000120     ti.targets.arm.rtsarm.aem4f : Error.oem4f (.text:xdc_runtime_Error_policyDefault__E)
                  00009078    00000118     stk.aem4f : sockint.oem4f (.text:SockNotify)
                  00009190    00000118               : tcpout.oem4f (.text:TcpGenPacket)
                  000092a8    00000114     sysbios.aem4f : BIOS.obj (.text:ti_sysbios_knl_Task_schedule__I)
                  000093bc    00000110     stk.aem4f : nimu.oem4f (.text:NIMUIoctl)
                  000094cc    00000110               : node.oem4f (.text:NodeTreeFree)
                  000095dc    00000110               : raw.oem4f (.text:RawInput)
                  000096ec    0000010c               : igmp.oem4f (.text:IGMPSendReply)
                  000097f8    0000010c               : route.oem4f (.text:RtCreate)
                  00009904    0000010c               : rtable.oem4f (.text:RtFind)
                  00009a10    00000104     ti.targets.arm.rtsarm.aem4f : Core-mem.oem4f (.text:xdc_runtime_Core_createObject__I)
                  00009b14    00000104     tcpEcho_pem4f.oem4f (.text:xdc_runtime_System_printfExtend__I)
                  00009c18    00000102     nettool_ipv4.aem4f : dhcppkt.oem4f (.text:dhcpPacketProcess)
                  00009d1a    00000100                        : inetaddr.oem4f (.text:inet_aton)
                  00009e1a    000000fe     stk.aem4f : pipe.oem4f (.text:PipeRecv)
                  00009f18    000000fc     rtsv7M4_T_le_v4SPD16_eabi.lib : fd_mul_t2.obj (.text)
                  0000a014    000000fc     sysbios.aem4f : BIOS.obj (.text:ti_sysbios_knl_Task_postInit__I)
                  0000a110    000000fc                   : BIOS.obj (.text:ti_sysbios_knl_Task_startCore__E)
                  0000a20c    000000fc     ti.targets.arm.rtsarm.aem4f : Startup.oem4f (.text:xdc_runtime_Startup_startMods__I)
                  0000a308    000000f8     emac_tivaware.aem4f : EMACSnow.oem4f (.text:EMACSnow_emacStart)
                  0000a400    000000f4     sysbios.aem4f : m3_Hwi_asm.obj (.text:ti_sysbios_family_arm_m3_Hwi_dispatch__I)
                  0000a4f4    000000f0     stk.aem4f : lliout.oem4f (.text:LLIGenArpPacket)
                  0000a5e4    000000ee               : sock.oem4f (.text:SockClose)
                  0000a6d2    00000002     hal_ser_stub.aem4f : llserstb.oem4f (.text:_llSerialServiceCheck)
                  0000a6d4    000000e8     os.aem4f : task.oem4f (.text:llEnter)
                  0000a7bc    000000e2     nettool_ipv4.aem4f : dhcpsock.oem4f (.text:dhcpSocketOpen)
                  0000a89e    00000002     hal_ser_stub.aem4f : llserstb.oem4f (.text:_llSerialShutdown)
                  0000a8a0    000000dc     stk.aem4f : sb.oem4f (.text:SBWrite)
                  0000a97c    000000dc     rtsv7M4_T_le_v4SPD16_eabi.lib : setvbuf.obj (.text)
                  0000aa58    000000dc     sysbios.aem4f : BIOS.obj (.text:ti_sysbios_knl_Swi_Instance_init__E)
                  0000ab34    000000da     nettool_ipv4.aem4f : dhcpsm.oem4f (.text:dhcpState)
                  0000ac0e    00000002     hal_userled_stub.aem4f : llled.oem4f (.text:_llUserLedInit)
                  0000ac10    000000d8     stk.aem4f : node.oem4f (.text:NodeAdd)
                  0000ace8    000000d5               : nimu.oem4f (.text:NIMUReceivePacket)
                  0000adbd    00000001     --HOLE-- [fill = 0]
                  0000adbe    00000002     hal_userled_stub.aem4f : llled.oem4f (.text:_llUserLedShutdown)
                  0000adc0    000000d4     emac_tivaware.aem4f : EMACSnow.oem4f (.text:EMACSnow_handleRx)
                  0000ae94    000000d4     stk.aem4f : sockpcb.oem4f (.text:SockPcbBind)
                  0000af68    000000d4               : tcptime.oem4f (.text:TcpTimeoutRexmt)
                  0000b03c    000000d4     sysbios.aem4f : BIOS.obj (.text:ti_sysbios_family_arm_m3_Hwi_postInit__I)
                  0000b110    000000d2     stk.aem4f : tcpprot.oem4f (.text:TcpPrSetOption)
                  0000b1e2    000000ce     nettool_ipv4.aem4f : dhcpsm.oem4f (.text:dhcpIPAdd)
                  0000b2b0    000000cc     stk.aem4f : icmp.oem4f (.text:ICMPSendRtAdv)
                  0000b37c    000000cc     nettool_ipv4.aem4f : dhcpbild.oem4f (.text:dhcpBuildHeader)
                  0000b448    000000cc     ti.targets.arm.rtsarm.aem4f : Core-smem.oem4f (.text:xdc_runtime_Core_constructObject__I)
                  0000b514    000000ca     nettool_ipv4.aem4f : dhcppkt.oem4f (.text:dhcpVerifyMessage)
                  0000b5de    00000002     hal_ser_stub.aem4f : llserstb.oem4f (.text:llSerialService)
                  0000b5e0    000000c8     stk.aem4f : rawethsock.oem4f (.text:RawEthSockNew)
                  0000b6a8    000000c4     emac_tivaware.aem4f : EMACSnow.oem4f (.text:EMACSnow_InitDMADescriptors)
                  0000b76c    000000c4     stk.aem4f : igmp.oem4f (.text:IGMPJoinHostGroup)
                  0000b830    000000c4     sysbios.aem4f : BIOS.obj (.text:ti_sysbios_knl_Task_unblockI__E)
                  0000b8f4    000000c0     netctrl_min_ipv4.aem4f : netctrl.oem4f (.text:NetScheduler)
                  0000b9b4    000000c0     nettool_ipv4.aem4f : dhcpsm.oem4f (.text:StateBound)
                  0000ba74    000000c0     rtsv7M4_T_le_v4SPD16_eabi.lib : fflush.obj (.text)
                  0000bb34    000000bc     stk.aem4f : sockpcb.oem4f (.text:SockPcbFind)
                  0000bbf0    000000bc     os.aem4f : task.oem4f (.text:TaskGetEnv)
                  0000bcac    000000b8     EK_TM4C1294XL.obj (.text:EK_TM4C1294XL_initGeneral)
                  0000bd64    000000b8     stk.aem4f : icmpin.oem4f (.text:ICMPRevSrcRoute)
                  0000be1c    000000b8     os.aem4f : task.oem4f (.text:TaskSetEnv)
                  0000bed4    000000b4     sysbios.aem4f : BIOS.obj (.text:ti_sysbios_family_arm_lm4_Timer_enableTiva__I)
                  0000bf88    000000b4                   : BIOS.obj (.text:ti_sysbios_gates_GateMutex_enter__E)
                  0000c03c    000000b4                   : BIOS.obj (.text:ti_sysbios_knl_Swi_post__E)
                  0000c0f0    000000b4                   : BIOS.obj (.text:ti_sysbios_knl_Task_checkStacks__E)
                  0000c1a4    000000b0     stk.aem4f : rawethsock.oem4f (.text:RawEthSockSet)
                  0000c254    000000b0     netctrl_min_ipv4.aem4f : netsrv.oem4f (.text:SPIpNet)
                  0000c304    000000b0     stk.aem4f : sockint.oem4f (.text:SockCreatePacket)
                  0000c3b4    000000b0               : lli.oem4f (.text:_LLITimeoutCheck)
                  0000c464    000000b0     sysbios.aem4f : BIOS.obj (.text:ti_sysbios_family_arm_lm4_Timer_Module_startup__E)
                  0000c514    000000b0                   : BIOS.obj (.text:ti_sysbios_family_arm_lm4_Timer_enableTimers__I)
                  0000c5c4    000000b0                   : BIOS.obj (.text:ti_sysbios_family_arm_m3_Hwi_excHardFault__I)
                  0000c674    000000ac     stk.aem4f : rtable.oem4f (.text:RtTimeoutCheck)
                  0000c720    000000ac     rtsv7M4_T_le_v4SPD16_eabi.lib : _io_perm.obj (.text)
                  0000c7cc    000000ac     tcpEcho_pem4f.oem4f (.text:ti_ndk_config_ip_init)
                  0000c878    000000a8     stk.aem4f : tcptime.oem4f (.text:TcpTimeoutKeep)
                  0000c920    000000a8     sysbios.aem4f : BIOS.obj (.text:ti_sysbios_knl_Task_blockI__E)
                  0000c9c8    000000a4     stk.aem4f : vlan.oem4f (.text:VLANDeinit)
                  0000ca6c    000000a4     sysbios.aem4f : BIOS.obj (.text:ti_sysbios_family_arm_m3_Hwi_excDebugMon__I)
                  0000cb10    000000a0     auto_init.aem4f : auto_init.oem4f (.text)
                  0000cbb0    000000a0     sysbios.aem4f : BIOS.obj (.text:ti_sysbios_family_arm_m3_Hwi_Instance_init__E)
                  0000cc50    0000009c     stk.aem4f : exec.oem4f (.text:ExecOpen)
                  0000ccec    0000009c     netctrl_min_ipv4.aem4f : netsrv.oem4f (.text:ServiceScan)
                  0000cd88    0000009c     rtsv7M4_T_le_v4SPD16_eabi.lib : fputc.obj (.text)
                  0000ce24    0000009c                                   : memcpy_t2.obj (.text)
                  0000cec0    0000009c     sysbios.aem4f : BIOS.obj (.text:ti_sysbios_family_arm_lm4_Timer_setNextTick__E)
                  0000cf5c    0000009c                   : BIOS.obj (.text:ti_sysbios_knl_Semaphore_Instance_init__E)
                  0000cff8    0000009a     ti.targets.arm.rtsarm.aem4f : Text.oem4f (.text:xdc_runtime_Text_putSite__E)
                  0000d092    00000002     tcpEcho_pem4f.oem4f (.text:ti_ndk_config_Global_NetworkClose)
                  0000d094    00000098     stk.aem4f : ip.oem4f (.text:IPGetRoute)
                  0000d12c    00000098     netctrl_min_ipv4.aem4f : netctrl.oem4f (.text:NC_SystemOpen)
                  0000d1c4    00000098     rtsv7M4_T_le_v4SPD16_eabi.lib : fclose.obj (.text)
                  0000d25c    00000098     sysbios.aem4f : BIOS.obj (.text:ti_sysbios_knl_Clock_startI__E)
                  0000d2f4    00000096     stk.aem4f : nimu.oem4f (.text:NIMUAddEthernetHeader)
                  0000d38a    00000002     tcpEcho_pem4f.oem4f (.text:ti_ndk_config_Global_NetworkOpen)
                  0000d38c    00000096     tcpEcho.obj (.text:main)
                  0000d422    00000002     tcpEcho_pem4f.oem4f (.text:ti_sysbios_BIOS_nullFunc__I)
                  0000d424    00000094     nettool_ipv4.aem4f : config.oem4f (.text:CfgExecute)
                  0000d4b8    00000094                        : config.oem4f (.text:CfgRemoveEntry)
                  0000d54c    00000094     Boot.aem4f : Boot.oem4f (.text:ti_catalog_arm_cortexm4_tiva_ce_Boot_sysCtlClockFreqSet__E)
                  0000d5e0    00000094     ti.targets.arm.rtsarm.aem4f : Text.oem4f (.text:xdc_runtime_Text_putMod__E)
                  0000d674    00000090     stk.aem4f : igmp.oem4f (.text:IGMPMsg)
                  0000d704    00000090               : sockpcb.oem4f (.text:SockPcbCtlError)
                  0000d794    00000090     os.aem4f : mem.oem4f (.text:_mmInit)
                  0000d824    00000090              : mem.oem4f (.text:mmBulkAlloc)
                  0000d8b4    0000008e     nettool_ipv4.aem4f : dhcpbild.oem4f (.text:dhcpBuildRequest)
                  0000d942    00000002     sysbios.aem4f : BIOS.obj (.text:ti_sysbios_gates_GateHwi_Instance_init__E)
                  0000d944    0000008c     os.aem4f : mem.oem4f (.text:mmInitPage)
                  0000d9d0    0000008c     sysbios.aem4f : m3_TaskSupport_asm.obj (.text:ti_sysbios_family_arm_m3_TaskSupport_buildTaskStack)
                  0000da5c    0000008a     netctrl_min_ipv4.aem4f : netsrv.oem4f (.text:SPRoute)
                  0000dae6    00000002     tcpEcho_pem4f.oem4f (.text:xdc_runtime_Startup_reset__I)
                  0000dae8    00000088     sysbios.aem4f : BIOS.obj (.text:ti_sysbios_family_arm_m3_Hwi_initNVIC__E)
                  0000db70    00000086     nettool_ipv4.aem4f : dhcpsm.oem4f (.text:StateRequesting)
                  0000dbf6    00000086     rtsv7M4_T_le_v4SPD16_eabi.lib : fd_cmp_t2.obj (.text:__aeabi_cdcmple)
                  0000dc7c    00000086                                   : fd_cmp_t2.obj (.text:__aeabi_cdrcmple)
                  0000dd02    00000002     --HOLE-- [fill = 0]
                  0000dd04    00000084     stk.aem4f : tcpprot.oem4f (.text:TcpPrAttach)
                  0000dd88    00000084     os.aem4f : mem.oem4f (.text:mmBulkFree)
                  0000de0c    00000084     sysbios.aem4f : BIOS.obj (.text:ti_sysbios_knl_Task_Module_startup__E)
                  0000de90    00000082     nettool_ipv4.aem4f : dhcpsm.oem4f (.text:StateRenewRebind)
                  0000df12    00000002     --HOLE-- [fill = 0]
                  0000df14    00000080     stk.aem4f : ip.oem4f (.text:IPMsg)
                  0000df94    00000080     netctrl_min_ipv4.aem4f : netsrv.oem4f (.text:NS_BootTask)
                  0000e014    00000080     stk.aem4f : pbm.oem4f (.text:PBM_alloc)
                  0000e094    00000080               : raw.oem4f (.text:RawOutput)
                  0000e114    00000080     netctrl_min_ipv4.aem4f : netsrv.oem4f (.text:ServiceSpawn)
                  0000e194    00000080     os.aem4f : mem.oem4f (.text:mmFree)
                  0000e214    0000007f     tcpEcho_pem4f.oem4f (.text:ti_ndk_config_Global_NetworkIPAddr)
                  0000e293    00000001     --HOLE-- [fill = 0]
                  0000e294    0000007e     stk.aem4f : fileuser.oem4f (.text:fdClose)
                  0000e312    00000002     --HOLE-- [fill = 0]
                  0000e314    0000007c     nettool_ipv4.aem4f : config.oem4f (.text:CfgGetEntry)
                  0000e390    0000007c                        : config.oem4f (.text:CfgGetNextEntry)
                  0000e40c    0000007c     emac_tivaware.aem4f : EMACSnow.oem4f (.text:EMACSnow_processPendingTx)
                  0000e488    0000007c                         : EMACSnow.oem4f (.text:EMACSnow_processPhyInterrupt)
                  0000e504    0000007c     stk.aem4f : nimu.oem4f (.text:NIMURegister)
                  0000e580    0000007c               : pbm.oem4f (.text:PBM_free)
                  0000e5fc    0000007c               : socket.oem4f (.text:setsockopt)
                  0000e678    0000007a               : igmp.oem4f (.text:IGMPDoMCast)
                  0000e6f2    00000002     --HOLE-- [fill = 0]
                  0000e6f4    00000078     driverlib.lib : emac.obj (.text:EMACInit)
                  0000e76c    00000078     stk.aem4f : lli.oem4f (.text:LLINew)
                  0000e7e4    00000078               : sock.oem4f (.text:SockAccept)
                  0000e85c    00000078               : tcptime.oem4f (.text:TcpXmitTimer)
                  0000e8d4    00000078               : fileuser.oem4f (.text:fdOpenSession)
                  0000e94c    00000078     rtsv7M4_T_le_v4SPD16_eabi.lib : memset_t2.obj (.text)
                  0000e9c4    00000078     stk.aem4f : socket.oem4f (.text:sendto)
                  0000ea3c    00000076               : pipe.oem4f (.text:PipeSend)
                  0000eab2    00000002     --HOLE-- [fill = 0]
                  0000eab4    00000074               : nimu.oem4f (.text:NIMUShutdown)
                  0000eb28    00000074               : raweth.oem4f (.text:RawEthRxPacket)
                  0000eb9c    00000074               : sockpcb.oem4f (.text:SockPcbConnect)
                  0000ec10    00000072               : igmp.oem4f (.text:IGMPJoin)
                  0000ec82    00000002     --HOLE-- [fill = 0]
                  0000ec84    00000072               : rtable.oem4f (.text:RtWalkNext)
                  0000ecf6    00000002     --HOLE-- [fill = 0]
                  0000ecf8    00000072     os.aem4f : semaphore.oem4f (.text:SemCreateBinary)
                  0000ed6a    00000002     --HOLE-- [fill = 0]
                  0000ed6c    00000070     emac_tivaware.aem4f : EMACSnow.oem4f (.text:EMACSnow_hwiIntFxn)
                  0000eddc    00000070     stk.aem4f : igmp.oem4f (.text:IGMPLeaveHostGroup)
                  0000ee4c    00000070               : rtable.oem4f (.text:RtFlush)
                  0000eebc    00000070               : sock.oem4f (.text:SockShutdown)
                  0000ef2c    00000070     nettool_ipv4.aem4f : dhcptags.oem4f (.text:dhcpDecodeType)
                  0000ef9c    00000070     os.aem4f : task.oem4f (.text:llExit)
                  0000f00c    00000070     stk.aem4f : socket.oem4f (.text:send)
                  0000f07c    00000070     ti.targets.arm.rtsarm.aem4f : Memory.oem4f (.text:xdc_runtime_Memory_alloc__E)
                  0000f0ec    0000006e     stk.aem4f : socket.oem4f (.text:recv)
                  0000f15a    00000002     --HOLE-- [fill = 0]
                  0000f15c    0000006d               : node.oem4f (.text:NodeNew)
                  0000f1c9    00000003     --HOLE-- [fill = 0]
                  0000f1cc    0000006c     os.aem4f : ossys.oem4f (.text:DbgPrintf)
                  0000f238    0000006c     emac_tivaware.aem4f : EMACSnow.oem4f (.text:EMACSnow_emacStop)
                  0000f2a4    0000006c     stk.aem4f : node.oem4f (.text:NodeTreeNew)
                  0000f310    0000006c               : raweth.oem4f (.text:RawEthTxPacket)
                  0000f37c    0000006c               : sock.oem4f (.text:SockListen)
                  0000f3e8    0000006c     rtsv7M4_T_le_v4SPD16_eabi.lib : fprintf.obj (.text)
                  0000f454    0000006c     tcpEcho_pem4f.oem4f (.text:ti_sysbios_family_arm_m3_Hwi_Object__create__S)
                  0000f4c0    0000006c     sysbios.aem4f : BIOS.obj (.text:ti_sysbios_knl_Clock_start__E)
                  0000f52c    0000006c     ti.targets.arm.rtsarm.aem4f : Error.oem4f (.text:xdc_runtime_Error_print__E)
                  0000f598    0000006a     stk.aem4f : tcpprot.oem4f (.text:TcpPrInherit)
                  0000f602    0000006a               : rtable.oem4f (.text:_RtNodeInsert)
                  0000f66c    0000006a               : socket.oem4f (.text:accept)
                  0000f6d6    00000002     --HOLE-- [fill = 0]
                  0000f6d8    00000068               : pbm.oem4f (.text:PBM_open)
                  0000f740    00000068     netctrl_min_ipv4.aem4f : netsrv.oem4f (.text:SPConfig)
                  0000f7a8    00000068     stk.aem4f : sockpcb.oem4f (.text:SockPcbFindRaw)
                  0000f810    00000068               : udp.oem4f (.text:UdpChecksum)
                  0000f878    00000068     hal_timer_bios.aem4f : lltimer.oem4f (.text:llTimerTick)
                  0000f8e0    00000068     stk.aem4f : socket.oem4f (.text:socket)
                  0000f948    00000066     ti.targets.arm.rtsarm.aem4f : Core-mem.oem4f (.text:xdc_runtime_Core_deleteObject__I)
                  0000f9ae    00000002     --HOLE-- [fill = 0]
                  0000f9b0    00000065     stk.aem4f : tcptime.oem4f (.text:TcpTimeoutSackRexmt)
                  0000fa15    00000003     --HOLE-- [fill = 0]
                  0000fa18    00000064     nettool_ipv4.aem4f : config.oem4f (.text:CfgFree)
                  0000fa7c    00000064     stk.aem4f : pbm.oem4f (.text:PBMQ_enq)
                  0000fae0    00000064     rtsv7M4_T_le_v4SPD16_eabi.lib : fseek.obj (.text)
                  0000fb44    00000064     sysbios.aem4f : BIOS.obj (.text:ti_sysbios_family_arm_lm4_Timer_isrStub__E)
                  0000fba8    00000064     tcpEcho_pem4f.oem4f (.text:ti_sysbios_hal_Hwi_create)
                  0000fc0c    00000062     stk.aem4f : ipin.oem4f (.text:IPRouteIP)
                  0000fc6e    00000002     --HOLE-- [fill = 0]
                  0000fc70    00000062               : sb.oem4f (.text:SBNew)
                  0000fcd2    00000002     --HOLE-- [fill = 0]
                  0000fcd4    00000060     nettool_ipv4.aem4f : config.oem4f (.text:CfgGetEntryCnt)
                  0000fd34    00000060     stk.aem4f : file.oem4f (.text:FdWaitEvent)
                  0000fd94    00000060               : node.oem4f (.text:NodeFind)
                  0000fdf4    00000060               : rtc.oem4f (.text:RTCMsg)
                  0000fe54    00000060               : tcp.oem4f (.text:TcpChecksum)
                  0000feb4    00000060     nettool_ipv4.aem4f : dhcptags.oem4f (.text:dhcpBuildOptions)
                  0000ff14    00000060     rtsv7M4_T_le_v4SPD16_eabi.lib : trgmsg.obj (.text)
                  0000ff74    00000060     sysbios.aem4f : BIOS.obj (.text:ti_sysbios_knl_Clock_logTick__E)
                  0000ffd4    00000060                   : BIOS.obj (.text:ti_sysbios_knl_Swi_schedule__I)
                  00010034    00000060     stk.aem4f : lliin.oem4f (.text:updateRtTable)
                  00010094    00000060     ti.targets.arm.rtsarm.aem4f : System.oem4f (.text:xdc_runtime_System_formatNum__I)
                  000100f4    0000005e     stk.aem4f : route.oem4f (.text:RtRemove)
                  00010152    0000005e     nettool_ipv4.aem4f : dhcpsm.oem4f (.text:StateSelecting)
                  000101b0    0000005e     rtsv7M4_T_le_v4SPD16_eabi.lib : copy_decompress_rle.obj (.text)
                  0001020e    00000002     --HOLE-- [fill = 0]
                  00010210    0000005c     nettool_ipv4.aem4f : config.oem4f (.text:CfgSetExecuteOrder)
                  0001026c    0000005c     stk.aem4f : nimu.oem4f (.text:NIMUIoctlSpecialCmd)
                  000102c8    0000005c               : sockint.oem4f (.text:SockSpawnAbort)
                  00010324    0000005c               : vlan.oem4f (.text:VLANReceivePacket)
                  00010380    0000005c     tcpEcho_pem4f.oem4f (.text:ti_sysbios_knl_Swi_create)
                  000103dc    0000005c     tcpEcho_pem4f.oem4f (.text:ti_sysbios_knl_Task_create)
                  00010438    0000005b     ti.targets.arm.rtsarm.aem4f : Text.oem4f (.text:xdc_runtime_Text_putLab__E)
                  00010493    00000001     --HOLE-- [fill = 0]
                  00010494    0000005a     stk.aem4f : route.oem4f (.text:RtRedirect)
                  000104ee    0000005a               : tcpprot.oem4f (.text:TcpValidateMetrics)
                  00010548    0000005a     nettool_ipv4.aem4f : dhcpbild.oem4f (.text:dhcpBuildDecline)
                  000105a2    0000005a     rtsv7M4_T_le_v4SPD16_eabi.lib : ltoa.obj (.text)
                  000105fc    0000005a     tcpEcho_pem4f.oem4f (.text:ti_ndk_config_tcp_init)
                  00010656    00000002     --HOLE-- [fill = 0]
                  00010658    00000058     stk.aem4f : bind.oem4f (.text:BindFree)
                  000106b0    00000058     boot.aem4f : boot.oem4f (.text)
                  00010708    00000058     driverlib.lib : emac.obj (.text:EMACPHYConfigSet)
                  00010760    00000058     stk.aem4f : igmp.oem4f (.text:IGMPTimer)
                  000107b8    00000058     netctrl_min_ipv4.aem4f : netsrv.oem4f (.text:SPService)
                  00010810    00000058     os.aem4f : semaphore.oem4f (.text:SemCreate)
                  00010868    00000058     sysbios.aem4f : m3_Hwi_asm_switch.obj (.text:ti_sysbios_family_arm_m3_Hwi_initStacks__E)
                  000108c0    00000058                   : BIOS.obj (.text:ti_sysbios_knl_Swi_restoreHwi__E)
                  00010918    00000054     nettool_ipv4.aem4f : config.oem4f (.text:CfgEntryDeRef)
                  0001096c    00000054     stk.aem4f : igmp.oem4f (.text:IGMPLeave)
                  000109c0    00000054               : rawethsock_pcb.oem4f (.text:RawEthSockPcbAttach)
                  00010a14    00000054     os.aem4f : mem.oem4f (.text:mmCopy)
                  00010a68    00000054     sysbios.aem4f : BIOS.obj (.text:ti_sysbios_family_arm_m3_Hwi_Instance_finalize__E)
                  00010abc    00000054                   : BIOS.obj (.text:ti_sysbios_family_arm_m3_Hwi_Module_startup__E)
                  00010b10    00000054                   : BIOS.obj (.text:ti_sysbios_knl_Swi_Instance_finalize__E)
                  00010b64    00000050     stk.aem4f : route.oem4f (.text:RtNew)
                  00010bb4    00000050     driverlib.lib : sysctl.obj (.text:SysCtlPeripheralReset)
                  00010c04    00000050     stk.aem4f : tcpprot.oem4f (.text:TcpPrDetach)
                  00010c54    00000050     Boot.aem4f : Boot_sysctl.oem4f (.text:_SysCtlFrequencyGet)
                  00010ca4    00000050     stk.aem4f : socket.oem4f (.text:bind)
                  00010cf4    00000050     sysbios.aem4f : BIOS.obj (.text:ti_sysbios_knl_Task_deleteTerminatedTasksFunc__I)
                  00010d44    00000050     ti.targets.arm.rtsarm.aem4f : Startup.oem4f (.text:xdc_runtime_Startup_exec__E)
                  00010d94    00000050                                 : Text.oem4f (.text:xdc_runtime_Text_visitRope2__I)
                  00010de4    0000004e     stk.aem4f : node.oem4f (.text:NodeDeRef)
                  00010e32    00000002     --HOLE-- [fill = 0]
                  00010e34    0000004c     nettool_ipv4.aem4f : ipaddr.oem4f (.text:NtAddNetwork)
                  00010e80    0000004c     stk.aem4f : sockint.oem4f (.text:SockValidateRoute)
                  00010ecc    0000004c               : file.oem4f (.text:fdint_lockfd)
                  00010f18    0000004c     rtsv7M4_T_le_v4SPD16_eabi.lib : atoi.obj (.text)
                  00010f64    0000004c     sysbios.aem4f : BIOS.obj (.text:ti_sysbios_knl_Swi_runLoop__I)
                  00010fb0    0000004c                   : BIOS.obj (.text:ti_sysbios_knl_Task_allBlockedFunction__I)
                  00010ffc    0000004a     stk.aem4f : sock.oem4f (.text:SockDisconnect)
                  00011046    00000002     --HOLE-- [fill = 0]
                  00011048    0000004a               : timer.oem4f (.text:TimerNew)
                  00011092    0000004a     nettool_ipv4.aem4f : config.oem4f (.text:_CfgEntryScan)
                  000110dc    00000048                        : config.oem4f (.text:CfgNew)
                  00011124    00000048     emac_tivaware.aem4f : EMACSnow.oem4f (.text:EMACSnow_processTransmitted)
                  0001116c    00000048     driverlib.lib : gpio.obj (.text:GPIOPinConfigure)
                  000111b4    00000048     stk.aem4f : lli.oem4f (.text:LLIMsg)
                  000111fc    00000048               : node.oem4f (.text:NodeWalk)
                  00011244    00000048               : sockpcb.oem4f (.text:SockPcbResolveChain)
                  0001128c    00000048               : tcpprot.oem4f (.text:TcpDrop)
                  000112d4    00000048               : tcptime.oem4f (.text:TcpTimeoutPersist)
                  0001131c    00000048               : lli.oem4f (.text:_LLIExpListInsert)
                  00011364    00000048               : rtable.oem4f (.text:_RtExpListInsert)
                  000113ac    00000048     rtsv7M4_T_le_v4SPD16_eabi.lib : fd_toi_t2.obj (.text)
                  000113f4    00000048     sysbios.aem4f : BIOS.obj (.text:ti_sysbios_family_arm_m3_Hwi_excReserved__I)
                  0001143c    00000048                   : BIOS.obj (.text:ti_sysbios_heaps_HeapMem_getStats__E)
                  00011484    00000048     ti.targets.arm.rtsarm.aem4f : Assert.oem4f (.text:xdc_runtime_Assert_raise__I)
                  000114cc    00000046     nettool_ipv4.aem4f : ipaddr.oem4f (.text:NtIfIdx2Ip)
                  00011512    00000046     stk.aem4f : rawethsock.oem4f (.text:RawEthSockSend)
                  00011558    00000046     netctrl_min_ipv4.aem4f : netsrv.oem4f (.text:ServiceKill)
                  0001159e    00000046     ti.targets.arm.rtsarm.aem4f : Core-params.oem4f (.text:xdc_runtime_Core_assignParams__I)
                  000115e4    00000044     stk.aem4f : ipfrag.oem4f (.text:IPReasmFree)
                  00011628    00000044               : lli.oem4f (.text:LLIGetValidTime)
                  0001166c    00000044               : rawethsock_pcb.oem4f (.text:RawEthSockPcbDetach)
                  000116b0    00000044               : rtable.oem4f (.text:RouteMsg)
                  000116f4    00000044               : rtable.oem4f (.text:RtWalkEnd)
                  00011738    00000044               : timer.oem4f (.text:TimerListInsert)
                  0001177c    00000044     hal_timer_bios.aem4f : lltimer.oem4f (.text:llTimerGetTime)
                  000117c0    00000044     rtsv7M4_T_le_v4SPD16_eabi.lib : cpy_tbl.obj (.text)
                  00011804    00000044                                   : exit.obj (.text)
                  00011848    00000044                                   : xdtest.obj (.text)
                  0001188c    00000044     sysbios.aem4f : BIOS.obj (.text:ti_sysbios_family_arm_m3_Hwi_disableInterrupt__E)
                  000118d0    00000044                   : BIOS.obj (.text:ti_sysbios_family_arm_m3_Hwi_enableInterrupt__E)
                  00011914    00000044     ti.targets.arm.rtsarm.aem4f : Error.oem4f (.text:xdc_runtime_Error_setX__E)
                  00011958    00000044                                 : SysMin.oem4f (.text:xdc_runtime_SysMin_flush__E)
                  0001199c    00000042     stk.aem4f : tcpprot.oem4f (.text:TcpPrSendOOB)
                  000119de    00000042               : fileuser.oem4f (.text:fdCloseSession)
                  00011a20    00000042               : socket.oem4f (.text:listen)
                  00011a62    00000042     rtsv7M4_T_le_v4SPD16_eabi.lib : u_divt2.obj (.text)
                  00011aa4    00000040     stk.aem4f : lliin.oem4f (.text:LLIValidateRoute)
                  00011ae4    00000040               : nimu.oem4f (.text:NIMUUnregister)
                  00011b24    00000040               : pbm.oem4f (.text:PBM_copy)
                  00011b64    00000040               : sockpcb.oem4f (.text:SockPcbDetach)
                  00011ba4    00000040               : sockpcb.oem4f (.text:SockPcbRtChange)
                  00011be4    00000040               : tcpprot.oem4f (.text:TcpPrDisconnect)
                  00011c24    00000040     os.aem4f : mem.oem4f (.text:mmZeroInit)
                  00011c64    00000040     sysbios.aem4f : BIOS.obj (.text:ti_sysbios_family_arm_lm4_Timer_getCurrentTick__E)
                  00011ca4    00000040                   : BIOS.obj (.text:ti_sysbios_family_arm_lm4_Timer_startup__E)
                  00011ce4    00000040                   : BIOS.obj (.text:ti_sysbios_knl_Swi_startup__E)
                  00011d24    00000040                   : BIOS.obj (.text:ti_sysbios_knl_Task_processVitalTaskFlag__I)
                  00011d64    0000003e     nettool_ipv4.aem4f : dhcpmain.oem4f (.text:DHCPClose)
                  00011da2    0000003e     stk.aem4f : icmp.oem4f (.text:ICMPChecksum)
                  00011de0    0000003e               : nimu.oem4f (.text:NIMUAllocateName)
                  00011e1e    0000003e               : tcpprot.oem4f (.text:TcpPrCtlError)
                  00011e5c    0000003e               : file.oem4f (.text:fdint_unlockfd)
                  00011e9a    0000003e     tcpEcho_pem4f.oem4f (.text:realloc)
                  00011ed8    0000003c     nettool_ipv4.aem4f : config.oem4f (.text:CfgEntryGetData)
                  00011f14    0000003c     driverlib.lib : emac.obj (.text:EMACIntDisable)
                  00011f50    0000003c     stk.aem4f : node.oem4f (.text:NodeUpdatePL)
                  00011f8c    0000003c               : rtable.oem4f (.text:RtWalkBegin)
                  00011fc8    0000003c               : tcpprot.oem4f (.text:TcpPrConnect)
                  00012004    0000003c               : tcptime.oem4f (.text:TcpSetPersist)
                  00012040    0000003c               : rtc.oem4f (.text:_RTCSendRtAdv)
                  0001207c    0000003c     hal_timer_bios.aem4f : lltimer.oem4f (.text:_llTimerInit)
                  000120b8    0000003c     sysbios.aem4f : BIOS.obj (.text:ti_sysbios_family_arm_m3_Hwi_excSvCall__I)
                  000120f4    0000003c                   : BIOS.obj (.text:ti_sysbios_family_arm_m3_TaskSupport_start__E)
                  00012130    0000003c                   : BIOS.obj (.text:ti_sysbios_heaps_HeapMem_init__I)
                  0001216c    0000003c     tcpEcho_pem4f.oem4f (.text:ti_sysbios_knl_Clock_create)
                  000121a8    0000003c     ti.targets.arm.rtsarm.aem4f : Text.oem4f (.text:xdc_runtime_Text_xprintf__I)
                  000121e4    0000003a     driverlib.lib : emac.obj (.text:EMACIntEnable)
                  0001221e    0000003a     stk.aem4f : rtable.oem4f (.text:_RtNodeRemove)
                  00012258    00000038     driverlib.lib : emac.obj (.text:EMACConfigGet)
                  00012290    00000038     stk.aem4f : ipfrag.oem4f (.text:IPReasmTimeout)
                  000122c8    00000038               : node.oem4f (.text:NodeGetRt)
                  00012300    00000038     driverlib.lib : sysctl.obj (.text:SysCtlPeripheralReady)
                  00012338    00000038     os.aem4f : task.oem4f (.text:TaskCreate)
                  00012370    00000038     stk.aem4f : tcpprot.oem4f (.text:TcpClose)
                  000123a8    00000038               : timer.oem4f (.text:TimerHSTick)
                  000123e0    00000038     nettool_ipv4.aem4f : dhcptags.oem4f (.text:dhcpOptionsClear)
                  00012418    00000038     stk.aem4f : file.oem4f (.text:fdint_waitevent)
                  00012450    00000038     sysbios.aem4f : BIOS.obj (.text:ti_sysbios_family_arm_m3_Hwi_excNoIsr__I)
                  00012488    00000038                   : BIOS.obj (.text:ti_sysbios_family_arm_m3_Hwi_getStackInfo__E)
                  000124c0    00000038                   : BIOS.obj (.text:ti_sysbios_knl_Clock_getTicks__E)
                  000124f8    00000038                   : BIOS.obj (.text:ti_sysbios_knl_Semaphore_pendTimeout__I)
                  00012530    00000038     ti.targets.arm.rtsarm.aem4f : SysMin.oem4f (.text:xdc_runtime_SysMin_putch__E)
                  00012568    00000038                                 : System.oem4f (.text:xdc_runtime_System_atexit__E)
                  000125a0    00000034     nettool_ipv4.aem4f : config.oem4f (.text:CfgSetService)
                  000125d4    00000034     driverlib.lib : emac.obj (.text:EMACConfigSet)
                  00012608    00000034                   : emac.obj (.text:EMACIntClear)
                  0001263c    00000034     emac_tivaware.aem4f : EMAC.oem4f (.text:EMAC_init)
                  00012670    00000034     stk.aem4f : ip.oem4f (.text:IPChecksum)
                  000126a4    00000034               : nimu.oem4f (.text:NIMUFindByName)
                  000126d8    00000034               : nimu.oem4f (.text:NIMUInit)
                  0001270c    00000034               : sock.oem4f (.text:SockGetName)
                  00012740    00000034     driverlib.lib : sysctl.obj (.text:SysCtlPeripheralEnable)
                  00012774    00000034     nettool_ipv4.aem4f : dhcpbild.oem4f (.text:dhcpBuildDiscover)
                  000127a8    00000034     os.aem4f : mem.oem4f (.text:mmUnInitPage)
                  000127dc    00000034     sysbios.aem4f : BIOS.obj (.text:ti_sysbios_family_arm_m3_Hwi_excNmi__I)
                  00012810    00000034                   : BIOS.obj (.text:ti_sysbios_hal_Hwi_checkStack)
                  00012844    00000034     tcpEcho_pem4f.oem4f (.text:ti_sysbios_knl_Semaphore_create)
                  00012878    00000034     sysbios.aem4f : BIOS.obj (.text:ti_sysbios_knl_Task_restore__E)
                  000128ac    00000034     ti.targets.arm.rtsarm.aem4f : Core-label.oem4f (.text:xdc_runtime_Core_assignLabel__I)
                  000128e0    00000033                                 : Text.oem4f (.text:xdc_runtime_Text_printVisFxn__I)
                  00012913    00000001     --HOLE-- [fill = 0]
                  00012914    00000032     nettool_ipv4.aem4f : config.oem4f (.text:CfgGetImmediate)
                  00012946    00000032     stk.aem4f : route.oem4f (.text:RtDeRef)
                  00012978    00000032               : sb.oem4f (.text:SBSetMax)
                  000129aa    00000032               : sock.oem4f (.text:SockIntAbort)
                  000129dc    00000032               : tcpprot.oem4f (.text:TcpPrSend)
                  00012a0e    00000032     nettool_ipv4.aem4f : config.oem4f (.text:_CfgAcquire)
                  00012a40    00000032                        : dhcpsm.oem4f (.text:dhcpIPRemove)
                  00012a72    00000030     driverlib.lib : emac.obj (.text:EMACAddrSet)
                  00012aa2    00000002     --HOLE-- [fill = 0]
                  00012aa4    00000030     emac_tivaware.aem4f : EMACSnow.oem4f (.text:EMACSnow_handlePackets)
                  00012ad4    00000030     netctrl_min_ipv4.aem4f : netsrv.oem4f (.text:NS_PreBoot)
                  00012b04    00000030     stk.aem4f : sb.oem4f (.text:SBFlush)
                  00012b34    00000030               : sock.oem4f (.text:SockBind)
                  00012b64    00000030               : sockpcb.oem4f (.text:SockCleanPcb)
                  00012b94    00000030               : sockprot.oem4f (.text:SockPrCtlError)
                  00012bc4    00000030     nettool_ipv4.aem4f : dhcpsock.oem4f (.text:dhcpPacketSend)
                  00012bf4    00000030     stk.aem4f : listlib.oem4f (.text:list_remove_node)
                  00012c24    00000030     rtsv7M4_T_le_v4SPD16_eabi.lib : strncpy.obj (.text)
                  00012c54    00000030     tcpEcho_pem4f.oem4f (.text:ti_sysbios_BIOS_atExitFunc__I)
                  00012c84    00000030     tcpEcho_pem4f.oem4f (.text:ti_sysbios_gates_GateHwi_Object__create__S)
                  00012cb4    00000030     tcpEcho_pem4f.oem4f (.text:ti_sysbios_gates_GateMutex_Object__create__S)
                  00012ce4    00000030     tcpEcho_pem4f.oem4f (.text:ti_sysbios_heaps_HeapMem_Object__create__S)
                  00012d14    00000030     tcpEcho_pem4f.oem4f (.text:ti_sysbios_knl_Semaphore_construct)
                  00012d44    00000030     ti.targets.arm.rtsarm.aem4f : SysMin.oem4f (.text:xdc_runtime_SysMin_abort__E)
                  00012d74    00000030                                 : System.oem4f (.text:xdc_runtime_System_processAtExit__E)
                  00012da4    0000002e     stk.aem4f : rawethsock.oem4f (.text:RawEthSockNotify)
                  00012dd2    0000002e               : route.oem4f (.text:RtSetFailure)
                  00012e00    0000002e               : sb.oem4f (.text:SBFree)
                  00012e2e    0000002e     tcpEcho_pem4f.oem4f (.text:malloc)
                  00012e5c    0000002e     rtsv7M4_T_le_v4SPD16_eabi.lib : i_tofd_t2.obj (.text)
                  00012e8a    00000002     --HOLE-- [fill = 0]
                  00012e8c    0000002c     EK_TM4C1294XL.obj (.text:EK_TM4C1294XL_initGPIO)
                  00012eb8    0000002c     driverlib.lib : emac.obj (.text:EMACIntStatus)
                  00012ee4    0000002c     stk.aem4f : file.oem4f (.text:FdSignalEvent)
                  00012f10    0000002c               : nimu.oem4f (.text:NIMUAllocateIndex)
                  00012f3c    0000002c               : nimu.oem4f (.text:NIMUPacketServiceCheck)
                  00012f68    0000002c               : pipe.oem4f (.text:PipeClose)
                  00012f94    0000002c               : sockpcb.oem4f (.text:SockPcbAttach)
                  00012fc0    0000002c     Boot.aem4f : Boot_sysctl.oem4f (.text:_SysCtlMemTimingGet)
                  00012fec    0000002c     sysbios.aem4f : BIOS.obj (.text:ti_sysbios_hal_Hwi_initStack)
                  00013018    0000002c                   : BIOS.obj (.text:ti_sysbios_knl_Clock_Module_startup__E)
                  00013044    0000002c     tcpEcho_pem4f.oem4f (.text:ti_sysbios_knl_Clock_doTick__I)
                  00013070    0000002c     tcpEcho_pem4f.oem4f (.text:ti_sysbios_knl_Queue_construct)
                  0001309c    0000002c     ti.targets.arm.rtsarm.aem4f : Text.oem4f (.text:xdc_runtime_Text_cordText__E)
                  000130c8    0000002a     driverlib.lib : gpio.obj (.text:GPIODirModeSet)
                  000130f2    0000002a     stk.aem4f : pbm.oem4f (.text:PBMQ_deq)
                  0001311c    0000002a     nettool_ipv4.aem4f : config.oem4f (.text:_CfgRelease)
                  00013146    0000002a                        : dhcpsock.oem4f (.text:dhcpPacketReceive)
                  00013170    0000002a     ti.targets.arm.rtsarm.aem4f : System.oem4f (.text:xdc_runtime_System_putchar__I)
                  0001319a    00000002     --HOLE-- [fill = 0]
                  0001319c    00000028     stk.aem4f : bind.oem4f (.text:BindFindByNet)
                  000131c4    00000028     emac_tivaware.aem4f : EMACSnow.oem4f (.text:EMACSnow_isLinkUp)
                  000131ec    00000028                         : EMACSnow.oem4f (.text:EMACSnow_pkt_service)
                  00013214    00000028     stk.aem4f : igmp.oem4f (.text:IGMPTestGroup)
                  0001323c    00000028     netctrl_min_ipv4.aem4f : netctrl.oem4f (.text:NC_SystemClose)
                  00013264    00000028     stk.aem4f : nimu.oem4f (.text:NIMUCreatePacket)
                  0001328c    00000028               : nimu.oem4f (.text:NIMUPacketService)
                  000132b4    00000028     netctrl_min_ipv4.aem4f : netsrv.oem4f (.text:ServiceCallback)
                  000132dc    00000028     stk.aem4f : tcpin.oem4f (.text:TcpEnterTimeWait)
                  00013304    00000028               : vlan.oem4f (.text:VLANFindSourceInterface)
                  0001332c    00000028               : vlan.oem4f (.text:VLANInit)
                  00013354    00000028               : lli.oem4f (.text:_LLIExpListRemove)
                  0001337c    00000028               : lli.oem4f (.text:_LLITimeoutFlush)
                  000133a4    00000028               : rtable.oem4f (.text:_RtExpListRemove)
                  000133cc    00000028     sysbios.aem4f : BIOS.obj (.text:ti_sysbios_hal_Hwi_Instance_init__E)
                  000133f4    00000026     driverlib.lib : emac.obj (.text:EMACPHYRead)
                  0001341a    00000026                   : emac.obj (.text:EMACPHYWrite)
                  00013440    00000026     stk.aem4f : rawethsock.oem4f (.text:RawEthSockClose)
                  00013466    00000026               : route.oem4f (.text:RtSetTimeout)
                  0001348c    00000026     tcpEcho_pem4f.oem4f (.text:ti_ndk_config_udp_init)
                  000134b2    00000026     sysbios.aem4f : m3_Hwi_asm.obj (.text:ti_sysbios_family_arm_m3_Hwi_pendSV__I)
                  000134d8    00000026     ti.targets.arm.rtsarm.aem4f : System.oem4f (.text:xdc_runtime_System_avprintf__E)
                  000134fe    00000024     stk.aem4f : bind.oem4f (.text:BindGetIFByDBCast)
                  00013522    00000002     --HOLE-- [fill = 0]
                  00013524    00000024     emac_tivaware.aem4f : EMACSnow.oem4f (.text:EMACSnow_emacPoll)
                  00013548    00000024                         : EMACSnow.oem4f (.text:EMACSnow_primeRx)
                  0001356c    00000024     stk.aem4f : exec.oem4f (.text:ExecTimer)
                  00013590    00000024     gpio_tivaware.aem4f : GPIO.oem4f (.text:GPIO_init)
                  000135b4    00000024     stk.aem4f : nimu.oem4f (.text:NIMUFindByIndex)
                  000135d8    00000024               : rawethsock_pcb.oem4f (.text:RawEthSockPcbFind)
                  000135fc    00000024               : route.oem4f (.text:RtFree)
                  00013620    00000024               : sockpcb.oem4f (.text:SockPcbCleanup)
                  00013644    00000024               : tcpprot.oem4f (.text:TcpPrListen)
                  00013668    00000024               : tcptime.oem4f (.text:TcpTimeoutWait2)
                  0001368c    00000024               : timer.oem4f (.text:TimerListRemove)
                  000136b0    00000024     nettool_ipv4.aem4f : config.oem4f (.text:_CfgEntryProcess)
                  000136d4    00000024     tcpEcho_pem4f.oem4f (.text:ti_sysbios_BIOS_errorRaiseHook__I)
                  000136f8    00000024     tcpEcho_pem4f.oem4f (.text:ti_sysbios_BIOS_registerRTSLock__I)
                  0001371c    00000024     tcpEcho_pem4f.oem4f (.text:ti_sysbios_BIOS_removeRTSLock__I)
                  00013740    00000024     tcpEcho_pem4f.oem4f (.text:ti_sysbios_BIOS_startFunc__I)
                  00013764    00000024     sysbios.aem4f : BIOS.obj (.text:ti_sysbios_family_arm_m3_Hwi_doTaskRestore__I)
                  00013788    00000024     tcpEcho_pem4f.oem4f (.text:ti_sysbios_gates_GateMutex_Object__delete__S)
                  000137ac    00000024     tcpEcho_pem4f.oem4f (.text:ti_sysbios_knl_Semaphore_Object__delete__S)
                  000137d0    00000024     sysbios.aem4f : BIOS.obj (.text:ti_sysbios_knl_Swi_Module_startup__E)
                  000137f4    00000024     ti.targets.arm.rtsarm.aem4f : System.oem4f (.text:xdc_runtime_System_vprintf__E)
                  00013818    00000022     nettool_ipv4.aem4f : config.oem4f (.text:CfgEntryInfo)
                  0001383a    00000022                        : config.oem4f (.text:CfgEntryRef)
                  0001385c    00000022     stk.aem4f : vlan.oem4f (.text:VLANFindNode)
                  0001387e    00000022     tcpEcho_pem4f.oem4f (.text:xdc_runtime_SysMin_output__I)
                  000138a0    00000020     stk.aem4f : bind.oem4f (.text:BindFindByHost)
                  000138c0    00000020     netctrl_min_ipv4.aem4f : netctrl.oem4f (.text:NC_BootComplete)
                  000138e0    00000020     os.aem4f : task.oem4f (.text:NDK_hookCreate)
                  00013900    00000020     stk.aem4f : nimu.oem4f (.text:NIMUGetNumOfObject)
                  00013920    00000020               : rtc.oem4f (.text:RTCAddHook)
                  00013940    00000020               : rtc.oem4f (.text:RTCRemoveHook)
                  00013960    00000020     tcpEcho_pem4f.oem4f (.text:ti_sysbios_family_arm_m3_Hwi_Object__delete__S)
                  00013980    00000020     sysbios.aem4f : m3_Hwi_asm.obj (.text:ti_sysbios_family_arm_m3_Hwi_excHandlerAsm__I)
                  000139a0    00000020                   : BIOS.obj (.text:ti_sysbios_family_arm_m3_Hwi_excHandler__I)
                  000139c0    00000020     tcpEcho_pem4f.oem4f (.text:ti_sysbios_gates_GateHwi_Object__delete__S)
                  000139e0    00000020     tcpEcho_pem4f.oem4f (.text:ti_sysbios_hal_Hwi_Object__delete__S)
                  00013a00    00000020     tcpEcho_pem4f.oem4f (.text:ti_sysbios_heaps_HeapMem_Object__delete__S)
                  00013a20    00000020     sysbios.aem4f : BIOS.obj (.text:ti_sysbios_knl_Idle_run__E)
                  00013a40    00000020     tcpEcho_pem4f.oem4f (.text:ti_sysbios_knl_Semaphore_Object__destruct__S)
                  00013a60    00000020     tcpEcho_pem4f.oem4f (.text:ti_sysbios_knl_Swi_Object__delete__S)
                  00013a80    00000020     tcpEcho_pem4f.oem4f (.text:ti_sysbios_knl_Task_Object__delete__S)
                  00013aa0    00000020     sysbios.aem4f : BIOS.obj (.text:ti_sysbios_knl_Task_enter__I)
                  00013ac0    00000020                   : BIOS.obj (.text:ti_sysbios_knl_Task_sleepTimeout__I)
                  00013ae0    00000020     ti.targets.arm.rtsarm.aem4f : Registry.oem4f (.text:xdc_runtime_Registry_findById__E)
                  00013b00    00000020                                 : SysMin.oem4f (.text:xdc_runtime_SysMin_Module_startup__E)
                  00013b20    0000001e     stk.aem4f : lli.oem4f (.text:LLIFree)
                  00013b3e    0000001e               : listlib.oem4f (.text:list_remove)
                  00013b5c    0000001e     sysbios.aem4f : m3_Hwi_asm_switch.obj (.text:ti_sysbios_family_xxx_Hwi_switchAndRunFunc)
                  00013b7a    0000001e     tcpEcho_pem4f.oem4f (.text:ti_sysbios_hal_Hwi_HwiProxy_create)
                  00013b98    0000001c     stk.aem4f : bind.oem4f (.text:BindFindByIF)
                  00013bb4    0000001c     emac_tivaware.aem4f : EMACSnow.oem4f (.text:EMACSnow_init)
                  00013bd0    0000001c     stk.aem4f : exec.oem4f (.text:ExecBroadcast)
                  00013bec    0000001c               : exec.oem4f (.text:ExecClose)
                  00013c08    0000001c     os.aem4f : ossys.oem4f (.text:NDK_sprintf)
                  00013c24    0000001c     stk.aem4f : nimu.oem4f (.text:NIMUAddHeader)
                  00013c40    0000001c               : sockprot.oem4f (.text:SockPrDetach)
                  00013c5c    0000001c     os.aem4f : task.oem4f (.text:TaskDestroy)
                  00013c78    0000001c     stk.aem4f : tcp.oem4f (.text:TcpTimeoutRemove)
                  00013c94    0000001c     rtsv7M4_T_le_v4SPD16_eabi.lib : memccpy.obj (.text)
                  00013cb0    0000001c     tcpEcho_pem4f.oem4f (.text:ti_sysbios_BIOS_rtsLock__I)
                  00013ccc    0000001c     sysbios.aem4f : BIOS.obj (.text:ti_sysbios_gates_GateMutex_Instance_init__E)
                  00013ce8    0000001c     tcpEcho_pem4f.oem4f (.text:ti_sysbios_knl_Queue_Object__destruct__S)
                  00013d04    0000001c     ti.targets.arm.rtsarm.aem4f : Error.oem4f (.text:xdc_runtime_Error_raiseX__E)
                  00013d20    0000001c                                 : Memory.oem4f (.text:xdc_runtime_Memory_valloc__E)
                  00013d3c    0000001c                                 : SysMin.oem4f (.text:xdc_runtime_SysMin_exit__E)
                  00013d58    0000001c                                 : System.oem4f (.text:xdc_runtime_System_abort__E)
                  00013d74    0000001a     stk.aem4f : sockint.oem4f (.text:SockSetOOBMark)
                  00013d8e    0000001a               : file.oem4f (.text:fdint_getfdt)
                  00013da8    0000001a     tcpEcho_pem4f.oem4f (.text:ti_sysbios_family_arm_m3_Hwi_Handle__label__S)
                  00013dc2    0000001a     tcpEcho_pem4f.oem4f (.text:ti_sysbios_gates_GateHwi_Handle__label__S)
                  00013ddc    0000001a     tcpEcho_pem4f.oem4f (.text:ti_sysbios_gates_GateMutex_Handle__label__S)
                  00013df6    0000001a     tcpEcho_pem4f.oem4f (.text:ti_sysbios_heaps_HeapMem_Handle__label__S)
                  00013e10    0000001a     tcpEcho_pem4f.oem4f (.text:ti_sysbios_knl_Swi_Handle__label__S)
                  00013e2a    0000001a     tcpEcho_pem4f.oem4f (.text:ti_sysbios_knl_Task_Handle__label__S)
                  00013e44    0000001a     tcpEcho_pem4f.oem4f (.text:xdc_runtime_System_aprintf__E)
                  00013e5e    0000001a     tcpEcho_pem4f.oem4f (.text:xdc_runtime_System_printf__E)
                  00013e78    00000018     emac_tivaware.aem4f : EMACSnow.oem4f (.text:EMACSnow_emacSend)
                  00013e90    00000018     driverlib.lib : gpio.obj (.text:GPIOPinTypeGPIOOutput)
                  00013ea8    00000018     stk.aem4f : ip.oem4f (.text:IPRtChange)
                  00013ec0    00000018               : rawethsock_pcb.oem4f (.text:RawEthSockPcbCleanup)
                  00013ed8    00000018     nettool_ipv4.aem4f : ipaddr.oem4f (.text:RouteHook)
                  00013ef0    00000018     stk.aem4f : tcpin.oem4f (.text:SEQ_GEQ)
                  00013f08    00000018               : tcpout.oem4f (.text:SEQ_GEQ)
                  00013f20    00000018               : tcpin.oem4f (.text:SEQ_GT)
                  00013f38    00000018               : tcpout.oem4f (.text:SEQ_GT)
                  00013f50    00000018               : tcpin.oem4f (.text:SEQ_LEQ)
                  00013f68    00000018               : tcpout.oem4f (.text:SEQ_LEQ)
                  00013f80    00000018               : tcpin.oem4f (.text:SEQ_LT)
                  00013f98    00000018               : tcpout.oem4f (.text:SEQ_LT)
                  00013fb0    00000018               : tcp.oem4f (.text:TcpTimeoutAdd)
                  00013fc8    00000018     nettool_ipv4.aem4f : dhcpsock.oem4f (.text:dhcpSocketClose)
                  00013fe0    00000018     tcpEcho_pem4f.oem4f (.text:free)
                  00013ff8    00000018     stk.aem4f : listlib.oem4f (.text:list_add)
                  00014010    00000018     rtsv7M4_T_le_v4SPD16_eabi.lib : args_main.obj (.text)
                  00014028    00000018                                   : ll_mul_t2.obj (.text)
                  00014040    00000018                                   : strcmp.obj (.text)
                  00014058    00000018     tcpEcho_pem4f.oem4f (.text:ti_sysbios_BIOS_rtsUnlock__I)
                  00014070    00000018     tcpEcho_pem4f.oem4f (.text:ti_sysbios_family_arm_lm4_Timer_Module__startupDone__F)
                  00014088    00000018     tcpEcho_pem4f.oem4f (.text:ti_sysbios_family_arm_m3_Hwi_Module__startupDone__F)
                  000140a0    00000018     sysbios.aem4f : m3_TaskSupport_asm.obj (.text:ti_sysbios_family_arm_m3_TaskSupport_swap__E)
                  000140b8    00000018                   : BIOS.obj (.text:ti_sysbios_gates_GateMutex_leave__E)
                  000140d0    00000018                   : BIOS.obj (.text:ti_sysbios_knl_Semaphore_reset__E)
                  000140e8    00000018     ti.targets.arm.rtsarm.aem4f : Error.oem4f (.text:xdc_runtime_Error_check__E)
                  00014100    00000018                                 : System.oem4f (.text:xdc_runtime_System_exit__E)
                  00014118    00000018                                 : Text.oem4f (.text:xdc_runtime_Text_ropeText__E)
                  00014130    00000016     stk.aem4f : bind.oem4f (.text:BindGetIP)
                  00014146    00000016     driverlib.lib : emac.obj (.text:EMACReset)
                  0001415c    00000016                   : emac.obj (.text:EMACRxEnable)
                  00014172    00000016                   : emac.obj (.text:EMACTxEnable)
                  00014188    00000016     stk.aem4f : file.oem4f (.text:fdint_freefdt)
                  0001419e    00000016     rtsv7M4_T_le_v4SPD16_eabi.lib : memchr.obj (.text)
                  000141b4    00000016                                   : strchr.obj (.text)
                  000141ca    00000016     tcpEcho_pem4f.oem4f (.text:ti_sysbios_BIOS_exitFunc__I)
                  000141e0    00000016     ti.targets.arm.rtsarm.aem4f : System.oem4f (.text:xdc_runtime_System_vsprintf__E)
                  000141f6    00000014     stk.aem4f : bind.oem4f (.text:BindIPHost2IF)
                  0001420a    00000002     --HOLE-- [fill = 0]
                  0001420c    00000014     driverlib.lib : flash.obj (.text:FlashUserGet)
                  00014220    00000014     netctrl_min_ipv4.aem4f : netctrl.oem4f (.text:NC_NetStop)
                  00014234    00000014     stk.aem4f : nimu.oem4f (.text:NIMUSendPacket)
                  00014248    00000014     nettool_ipv4.aem4f : ipaddr.oem4f (.text:NtRemoveNetwork)
                  0001425c    00000014     stk.aem4f : rawethsock_pcb.oem4f (.text:RawEthSockPcbInit)
                  00014270    00000014               : timer.oem4f (.text:TimerFree)
                  00014284    00000014     rtsv7M4_T_le_v4SPD16_eabi.lib : _lock.obj (.text)
                  00014298    00000014                                   : strlen.obj (.text)
                  000142ac    00000014     tcpEcho_pem4f.oem4f (.text:ti_sysbios_family_arm_m3_Hwi_Object__get__S)
                  000142c0    00000014     sysbios.aem4f : BIOS.obj (.text:ti_sysbios_family_arm_m3_Hwi_disableFxn__E)
                  000142d4    00000014                   : BIOS.obj (.text:ti_sysbios_family_arm_m3_Hwi_switchFromBootStack__E)
                  000142e8    00000014                   : BIOS.obj (.text:ti_sysbios_gates_GateHwi_enter__E)
                  000142fc    00000014     tcpEcho_pem4f.oem4f (.text:ti_sysbios_heaps_HeapMem_Object__get__S)
                  00014310    00000014     tcpEcho_pem4f.oem4f (.text:ti_sysbios_knl_Swi_Object__get__S)
                  00014324    00000014     tcpEcho_pem4f.oem4f (.text:ti_sysbios_knl_Task_Object__first__S)
                  00014338    00000014     tcpEcho_pem4f.oem4f (.text:ti_sysbios_knl_Task_Object__next__S)
                  0001434c    00000012     driverlib.lib : gpio.obj (.text:GPIOPinTypeEthernetLED)
                  0001435e    00000012                   : gpio.obj (.text:GPIOPinTypeGPIOInput)
                  00014370    00000012     stk.aem4f : sockprot.oem4f (.text:SockPrAttach)
                  00014382    00000012               : sockint.oem4f (.text:SockSetOOBData)
                  00014394    00000012     rtsv7M4_T_le_v4SPD16_eabi.lib : copy_zero_init.obj (.text:decompress:ZI)
                  000143a6    00000012     nettool_ipv4.aem4f : inetaddr.oem4f (.text:inet_addr)
                  000143b8    00000012     rtsv7M4_T_le_v4SPD16_eabi.lib : xdclass.obj (.text)
                  000143ca    00000012     sysbios.aem4f : BIOS.obj (.text:ti_sysbios_hal_Hwi_Module_startup__E)
                  000143dc    00000012     tcpEcho_pem4f.oem4f (.text:xdc_runtime_Startup_exec__I)
                  000143ee    00000002     --HOLE-- [fill = 0]
                  000143f0    00000010     tcpEcho_pem4f.oem4f (.text:.bootCodeSection:ti_catalog_arm_cortexm4_tiva_ce_Boot_init__I)
                  00014400    00000010     stk.aem4f : bind.oem4f (.text:BindIF2IPHost)
                  00014410    00000010               : bind.oem4f (.text:BindIFNet2IPHost)
                  00014420    00000010     driverlib.lib : emac.obj (.text:EMACFrameFilterSet)
                  00014430    00000010     stk.aem4f : exec.oem4f (.text:ExecHRef)
                  00014440    00000010     netctrl_min_ipv4.aem4f : netctrl.oem4f (.text:NC_IPUpdate)
                  00014450    00000010     stk.aem4f : nimu.oem4f (.text:NIMUGetRsvdSizeInfo)
                  00014460    00000010     rtsv7M4_T_le_v4SPD16_eabi.lib : strcpy.obj (.text)
                  00014470    00000010     sysbios.aem4f : BIOS.obj (.text:ti_sysbios_BIOS_getCpuFreq__E)
                  00014480    00000010                   : BIOS.obj (.text:ti_sysbios_BIOS_setThreadType__E)
                  00014490    00000010                   : BIOS.obj (.text:ti_sysbios_BIOS_start__E)
                  000144a0    00000010                   : m3_TaskSupport_asm.obj (.text:ti_sysbios_family_arm_m3_TaskSupport_glue)
                  000144b0    00000010                   : BIOS.obj (.text:ti_sysbios_gates_GateMutex_Instance_finalize__E)
                  000144c0    00000010     tcpEcho_pem4f.oem4f (.text:ti_sysbios_hal_Hwi_HwiProxy_Object__create__S)
                  000144d0    00000010     sysbios.aem4f : BIOS.obj (.text:ti_sysbios_knl_Semaphore_Instance_finalize__E)
                  000144e0    00000010                   : BIOS.obj (.text:ti_sysbios_knl_Swi_disable__E)
                  000144f0    00000010     tcpEcho_pem4f.oem4f (.text:ti_sysbios_knl_Task_Object__get__S)
                  00014500    00000010     sysbios.aem4f : BIOS.obj (.text:ti_sysbios_knl_Task_disable__E)
                  00014510    00000010     ti.targets.arm.rtsarm.aem4f : Gate.oem4f (.text:xdc_runtime_Gate_leaveSystem__E)
                  00014520    00000010                                 : Memory.oem4f (.text:xdc_runtime_Memory_free__E)
                  00014530    00000010                                 : SysMin.oem4f (.text:xdc_runtime_SysMin_ready__E)
                  00014540    00000010                                 : System.oem4f (.text:xdc_runtime_System_vsnprintf__E)
                  00014550    00000010     tcpEcho_pem4f.oem4f (.text:xdc_runtime_Text_visitRope__I)
                  00014560    0000000e     emac_tivaware.aem4f : EMACSnow.oem4f (.text:EMACSnow_emacioctl)
                  0001456e    0000000e     stk.aem4f : exec.oem4f (.text:ExecLowResource)
                  0001457c    0000000e     rtsv7M4_T_le_v4SPD16_eabi.lib : copy_decompress_none.obj (.text:decompress:none)
                  0001458a    0000000e     sysbios.aem4f : BIOS.obj (.text:ti_sysbios_knl_Queue_empty__E)
                  00014598    0000000c     stk.aem4f : bind.oem4f (.text:BindGetFirst)
                  000145a4    0000000c     nettool_ipv4.aem4f : config.oem4f (.text:CfgSetDefault)
                  000145b0    0000000c     os.aem4f : task.oem4f (.text:NDK_hookInit)
                  000145bc    0000000c     stk.aem4f : nimu.oem4f (.text:NIMUSetRsvdSizeInfo)
                  000145c8    0000000c     os.aem4f : task.oem4f (.text:NotifyLowResource)
                  000145d4    0000000c     stk.aem4f : pbm.oem4f (.text:PBM_close)
                  000145e0    0000000c     os.aem4f : semaphore.oem4f (.text:SemDelete)
                  000145ec    0000000c     hal_timer_bios.aem4f : lltimer.oem4f (.text:_llTimerShutdown)
                  000145f8    0000000c                          : lltimer.oem4f (.text:llTimerGetStartTime)
                  00014604    0000000c     sysbios.aem4f : BIOS.obj (.text:ti_sysbios_family_arm_lm4_Timer_getMaxTicks__E)
                  00014610    0000000c                   : BIOS.obj (.text:ti_sysbios_family_arm_m3_TaskSupport_checkStack__E)
                  0001461c    0000000c                   : BIOS.obj (.text:ti_sysbios_family_arm_m3_TaskSupport_getStackAlignment__E)
                  00014628    0000000c     tcpEcho_pem4f.oem4f (.text:ti_sysbios_knl_Clock_Params__init__S)
                  00014634    0000000c     tcpEcho_pem4f.oem4f (.text:ti_sysbios_knl_Queue_Object__get__S)
                  00014640    0000000c     tcpEcho_pem4f.oem4f (.text:ti_sysbios_knl_Semaphore_Params__init__S)
                  0001464c    0000000c     tcpEcho_pem4f.oem4f (.text:ti_sysbios_knl_Task_Params__init__S)
                  00014658    0000000c     sysbios.aem4f : BIOS.obj (.text:ti_sysbios_knl_Task_self__E)
                  00014664    0000000c     ti.targets.arm.rtsarm.aem4f : Error.oem4f (.text:xdc_runtime_Error_init__E)
                  00014670    0000000c                                 : Gate.oem4f (.text:xdc_runtime_Gate_enterSystem__E)
                  0001467c    0000000c                                 : Memory.oem4f (.text:xdc_runtime_Memory_calloc__E)
                  00014688    0000000c                                 : Memory.oem4f (.text:xdc_runtime_Memory_getMaxDefaultTypeAlign__E)
                  00014694    0000000a     stk.aem4f : file.oem4f (.text:fdint_signalevent)
                  0001469e    0000000a               : file.oem4f (.text:fdint_signaltimeout)
                  000146a8    0000000a     sysbios.aem4f : BIOS.obj (.text:ti_sysbios_hal_Hwi_Instance_finalize__E)
                  000146b2    0000000a     tcpEcho_pem4f.oem4f (.text:xdc_runtime_IHeap_alloc)
                  000146bc    0000000a     tcpEcho_pem4f.oem4f (.text:xdc_runtime_IHeap_free)
                  000146c6    00000008     driverlib.lib : emac.obj (.text:EMACTxDMAPollDemand)
                  000146ce    00000008     stk.aem4f : node.oem4f (.text:NodeFree)
                  000146d6    00000008     os.aem4f : task.oem4f (.text:TaskBlock)
                  000146de    00000008     sysbios.aem4f : BIOS.obj (.text:ti_sysbios_family_arm_lm4_Timer_masterDisable__I)
                  000146e6    00000008                   : BIOS.obj (.text:ti_sysbios_family_arm_m3_Hwi_doSwiRestore__I)
                  000146ee    00000008                   : BIOS.obj (.text:ti_sysbios_family_arm_m3_Hwi_startup__E)
                  000146f6    00000008                   : BIOS.obj (.text:ti_sysbios_knl_Idle_loop__E)
                  000146fe    00000008                   : BIOS.obj (.text:ti_sysbios_knl_Task_getHookContext__E)
                  00014706    00000008                   : BIOS.obj (.text:ti_sysbios_knl_Task_setHookContext__E)
                  0001470e    00000006     driverlib.lib : emac.obj (.text:EMACRxDMADescriptorListSet)
                  00014714    00000006                   : emac.obj (.text:EMACTxDMADescriptorListSet)
                  0001471a    00000006                   : sysctl.obj (.text:SysCtlDelay)
                  00014720    00000006     stk.aem4f : tcpprot.oem4f (.text:TcpPrRecv)
                  00014726    00000006     ti.targets.arm.rtsarm.aem4f : xdc_noinit.oem4f (.text:__xdc__init)
                  0001472c    00000006     rtsv7M4_T_le_v4SPD16_eabi.lib : copy_decompress_rle.obj (.text:decompress:rle24)
                  00014732    00000006     sysbios.aem4f : BIOS.obj (.text:ti_sysbios_family_arm_m3_Hwi_restoreFxn__E)
                  00014738    00000006                   : BIOS.obj (.text:ti_sysbios_gates_GateHwi_leave__E)
                  0001473e    00000006                   : BIOS.obj (.text:ti_sysbios_heaps_HeapMem_isBlocking__E)
                  00014744    00000006                   : BIOS.obj (.text:ti_sysbios_knl_Queue_Instance_init__E)
                  0001474a    00000006     ti.targets.arm.rtsarm.aem4f : System.oem4f (.text:xdc_runtime_System_Module_startup__E)
                  00014750    00000004     stk.aem4f : bind.oem4f (.text:BindGetIF)
                  00014754    00000004               : bind.oem4f (.text:BindGetNext)
                  00014758    00000004     os.aem4f : ossys.oem4f (.text:NDK_vsprintf)
                  0001475c    00000004     stk.aem4f : node.oem4f (.text:NodeSetRt)
                  00014760    00000004               : rawethsock_prot.oem4f (.text:RawEthSockPrAttach)
                  00014764    00000004               : rawethsock_prot.oem4f (.text:RawEthSockPrDetach)
                  00014768    00000004     os.aem4f : semaphore.oem4f (.text:SemPend)
                  0001476c    00000004              : semaphore.oem4f (.text:SemPost)
                  00014770    00000004              : semaphore.oem4f (.text:SemReset)
                  00014774    00000004              : task.oem4f (.text:TaskSelf)
                  00014778    00000004              : task.oem4f (.text:TaskSetPri)
                  0001477c    00000004     hal_ser_stub.aem4f : llserstb.oem4f (.text:_llSerialInit)
                  00014780    00000004     stk.aem4f : listlib.oem4f (.text:list_get_head)
                  00014784    00000004               : listlib.oem4f (.text:list_get_next)
                  00014788    00000004     rtsv7M4_T_le_v4SPD16_eabi.lib : error.obj (.text)
                  0001478c    00000004     tcpEcho_pem4f.oem4f (.text:ti_sysbios_BIOS_RtsGateProxy_enter__E)
                  00014790    00000004     tcpEcho_pem4f.oem4f (.text:ti_sysbios_BIOS_RtsGateProxy_leave__E)
                  00014794    00000004     sysbios.aem4f : BIOS.obj (.text:ti_sysbios_family_arm_lm4_Timer_masterEnable__I)
                  00014798    00000004     tcpEcho_pem4f.oem4f (.text:ti_sysbios_family_arm_m3_TaskSupport_Module__startupDone__S)
                  0001479c    00000004     sysbios.aem4f : BIOS.obj (.text:ti_sysbios_gates_GateHwi_query__E)
                  000147a0    00000004                   : BIOS.obj (.text:ti_sysbios_gates_GateMutex_query__E)
                  000147a4    00000004     tcpEcho_pem4f.oem4f (.text:ti_sysbios_hal_Hwi_HwiProxy_Module__startupDone__S)
                  000147a8    00000004     tcpEcho_pem4f.oem4f (.text:ti_sysbios_hal_Hwi_HwiProxy_Object__delete__S)
                  000147ac    00000004     tcpEcho_pem4f.oem4f (.text:ti_sysbios_hal_Hwi_HwiProxy_delete)
                  000147b0    00000004     tcpEcho_pem4f.oem4f (.text:ti_sysbios_hal_Hwi_delete)
                  000147b4    00000004     tcpEcho_pem4f.oem4f (.text:ti_sysbios_heaps_HeapMem_Module_GateProxy_enter__E)
                  000147b8    00000004     tcpEcho_pem4f.oem4f (.text:ti_sysbios_heaps_HeapMem_Module_GateProxy_leave__E)
                  000147bc    00000004     tcpEcho_pem4f.oem4f (.text:ti_sysbios_knl_Clock_TimerProxy_Module__startupDone__S)
                  000147c0    00000004     tcpEcho_pem4f.oem4f (.text:ti_sysbios_knl_Clock_TimerProxy_getCurrentTick__E)
                  000147c4    00000004     tcpEcho_pem4f.oem4f (.text:ti_sysbios_knl_Clock_TimerProxy_getMaxTicks__E)
                  000147c8    00000004     tcpEcho_pem4f.oem4f (.text:ti_sysbios_knl_Clock_TimerProxy_setNextTick__E)
                  000147cc    00000004     tcpEcho_pem4f.oem4f (.text:ti_sysbios_knl_Queue_destruct)
                  000147d0    00000004     tcpEcho_pem4f.oem4f (.text:ti_sysbios_knl_Semaphore_delete)
                  000147d4    00000004     tcpEcho_pem4f.oem4f (.text:ti_sysbios_knl_Semaphore_destruct)
                  000147d8    00000004     tcpEcho_pem4f.oem4f (.text:ti_sysbios_knl_Swi_delete)
                  000147dc    00000004     tcpEcho_pem4f.oem4f (.text:ti_sysbios_knl_Task_SupportProxy_Module__startupDone__S)
                  000147e0    00000004     tcpEcho_pem4f.oem4f (.text:ti_sysbios_knl_Task_delete)
                  000147e4    00000004     sysbios.aem4f : BIOS.obj (.text:ti_sysbios_knl_Task_startup__E)
                  000147e8    00000004     ti.targets.arm.rtsarm.aem4f : Error.oem4f (.text:xdc_runtime_Error_getMsg__E)
                  000147ec    00000004                                 : Error.oem4f (.text:xdc_runtime_Error_getSite__E)
                  000147f0    00000004     tcpEcho_pem4f.oem4f (.text:xdc_runtime_Memory_HeapProxy_alloc__E)
                  000147f4    00000004     tcpEcho_pem4f.oem4f (.text:xdc_runtime_Memory_HeapProxy_free__E)
                  000147f8    00000004     tcpEcho_pem4f.oem4f (.text:xdc_runtime_System_Module_GateProxy_enter__E)
                  000147fc    00000004     tcpEcho_pem4f.oem4f (.text:xdc_runtime_System_Module_GateProxy_leave__E)
                  00014800    00000004     ti.targets.arm.rtsarm.aem4f : System.oem4f (.text:xdc_runtime_System_aprintf_va__F)
                  00014804    00000004                                 : System.oem4f (.text:xdc_runtime_System_printf_va__F)

.const     0    00014808    00002405     
                  00014808    00001739     tcpEcho_pem4f.oem4f (.const:xdc_runtime_Text_charTab__A)
                  00015f41    00000001     tcpEcho_pem4f.oem4f (.const:ti_sysbios_knl_Clock_tickMode__C)
                  00015f42    00000002     tcpEcho_pem4f.oem4f (.const:ti_catalog_arm_cortexm4_tiva_ce_Boot_Module__id__C)
                  00015f44    00000120     Boot.aem4f : Boot_sysctl.oem4f (.const:g_pppui32XTALtoVCO)
                  00016064    00000102     rtsv7M4_T_le_v4SPD16_eabi.lib : ctype.obj (.const:.string:_ctypes_)
                  00016166    00000002     tcpEcho_pem4f.oem4f (.const:ti_sysbios_family_arm_m3_Hwi_Module__id__C)
                  00016168    00000100     tcpEcho_pem4f.oem4f (.const:.string)
                  00016268    000000d0     tcpEcho_pem4f.oem4f (.const:xdc_runtime_Text_nodeTab__A)
                  00016338    00000090     driverlib.lib : gpio.obj (.const:g_pui32GPIOBaseAddrs)
                  000163c8    0000006c     Boot.aem4f : Boot_sysctl.oem4f (.const:g_pui32Xtals)
                  00016434    00000054     stk.aem4f : sockprot.oem4f (.const:Code2Err)
                  00016488    0000003e               : rtc.oem4f (.const:.string)
                  000164c6    00000002     tcpEcho_pem4f.oem4f (.const:ti_sysbios_family_arm_m3_Hwi_Module__loggerDefined__C)
                  000164c8    0000003c     tcpEcho_pem4f.oem4f (.const:ti_sysbios_knl_Task_Object__PARAMS__C)
                  00016504    00000038     EK_TM4C1294XL.obj (.const)
                  0001653c    00000030     Boot.aem4f : Boot_sysctl.oem4f (.const:g_sXTALtoMEMTIM)
                  0001656c    00000030     EK_TM4C1294XL.obj (.const:gpioHWAttrs)
                  0001659c    00000030     tcpEcho_pem4f.oem4f (.const:ti_sysbios_family_arm_m3_Hwi_Object__PARAMS__C)
                  000165cc    0000002c     tcpEcho_pem4f.oem4f (.const:ti_sysbios_hal_Hwi_Object__PARAMS__C)
                  000165f8    00000028     tcpEcho_pem4f.oem4f (.const:ti_sysbios_heaps_HeapMem_Module__FXNS__C)
                  00016620    00000028     tcpEcho_pem4f.oem4f (.const:ti_sysbios_knl_Swi_Object__PARAMS__C)
                  00016648    00000024     tcpEcho_pem4f.oem4f (.const:ti_sysbios_gates_GateHwi_Module__FXNS__C)
                  0001666c    00000024     tcpEcho_pem4f.oem4f (.const:ti_sysbios_gates_GateMutex_Module__FXNS__C)
                  00016690    00000024     tcpEcho_pem4f.oem4f (.const:ti_sysbios_heaps_HeapMem_Object__PARAMS__C)
                  000166b4    00000024     tcpEcho_pem4f.oem4f (.const:ti_sysbios_knl_Clock_Object__PARAMS__C)
                  000166d8    00000024     tcpEcho_pem4f.oem4f (.const:ti_sysbios_knl_Semaphore_Object__PARAMS__C)
                  000166fc    00000020     tcpEcho_pem4f.oem4f (.const:ti_sysbios_family_arm_m3_Hwi_Object__DESC__C)
                  0001671c    00000020     tcpEcho_pem4f.oem4f (.const:ti_sysbios_gates_GateHwi_Object__DESC__C)
                  0001673c    00000020     tcpEcho_pem4f.oem4f (.const:ti_sysbios_gates_GateMutex_Object__DESC__C)
                  0001675c    00000020     tcpEcho_pem4f.oem4f (.const:ti_sysbios_hal_Hwi_Object__DESC__C)
                  0001677c    00000020     tcpEcho_pem4f.oem4f (.const:ti_sysbios_heaps_HeapMem_Object__DESC__C)
                  0001679c    00000020     tcpEcho_pem4f.oem4f (.const:ti_sysbios_knl_Clock_Object__DESC__C)
                  000167bc    00000020     tcpEcho_pem4f.oem4f (.const:ti_sysbios_knl_Queue_Object__DESC__C)
                  000167dc    00000020     tcpEcho_pem4f.oem4f (.const:ti_sysbios_knl_Semaphore_Object__DESC__C)
                  000167fc    00000020     tcpEcho_pem4f.oem4f (.const:ti_sysbios_knl_Swi_Object__DESC__C)
                  0001681c    00000020     tcpEcho_pem4f.oem4f (.const:ti_sysbios_knl_Task_Object__DESC__C)
                  0001683c    00000020     tcpEcho_pem4f.oem4f (.const:xdc_runtime_Startup_sfxnTab__A)
                  0001685c    0000001c     tcpEcho_pem4f.oem4f (.const)
                  00016878    00000018     driverlib.lib : emac.obj (.const)
                  00016890    00000018     tcpEcho_pem4f.oem4f (.const:ti_sysbios_gates_GateHwi_Object__PARAMS__C)
                  000168a8    00000018     tcpEcho_pem4f.oem4f (.const:ti_sysbios_gates_GateMutex_Object__PARAMS__C)
                  000168c0    00000018     tcpEcho_pem4f.oem4f (.const:ti_sysbios_knl_Queue_Object__PARAMS__C)
                  000168d8    00000018     tcpEcho_pem4f.oem4f (.const:ti_sysbios_knl_Task_hooks__A)
                  000168f0    00000014     tcpEcho_pem4f.oem4f (.const:xdc_runtime_Startup_firstFxns__A)
                  00016904    00000011     ti.targets.arm.rtsarm.aem4f : System.oem4f (.const:.string)
                  00016915    00000001     tcpEcho_pem4f.oem4f (.const:ti_sysbios_knl_Clock_tickSource__C)
                  00016916    00000002     tcpEcho_pem4f.oem4f (.const:ti_sysbios_gates_GateMutex_Module__id__C)
                  00016918    00000010     networkRove.obj (.const)
                  00016928    00000010     tcpEcho_pem4f.oem4f (.const:xdc_runtime_Startup_sfxnRts__A)
                  00016938    00000008     Boot.aem4f : Boot_sysctl.oem4f (.const)
                  00016940    00000008     emac_tivaware.aem4f : EMACSnow.oem4f (.const)
                  00016948    00000008     tcpEcho_pem4f.oem4f (.const:ti_sysbios_family_arm_m3_Hwi_excHookFuncs__A)
                  00016950    00000008     tcpEcho_pem4f.oem4f (.const:ti_sysbios_knl_Idle_funcList__A)
                  00016958    00000008     tcpEcho_pem4f.oem4f (.const:ti_sysbios_knl_Idle_funcList__C)
                  00016960    00000008     tcpEcho_pem4f.oem4f (.const:ti_sysbios_knl_Task_hooks__C)
                  00016968    00000008     tcpEcho_pem4f.oem4f (.const:xdc_runtime_Startup_firstFxns__C)
                  00016970    00000008     tcpEcho_pem4f.oem4f (.const:xdc_runtime_Startup_lastFxns__C)
                  00016978    00000004     tcpEcho_pem4f.oem4f (.const:ti_catalog_arm_cortexm4_tiva_ce_Boot_A_mustNotUseEnhancedClockMode__C)
                  0001697c    00000004     tcpEcho_pem4f.oem4f (.const:ti_catalog_arm_cortexm4_tiva_ce_Boot_Module__diagsEnabled__C)
                  00016980    00000004     tcpEcho_pem4f.oem4f (.const:ti_catalog_arm_cortexm4_tiva_ce_Boot_Module__diagsIncluded__C)
                  00016984    00000004     tcpEcho_pem4f.oem4f (.const:ti_catalog_arm_cortexm4_tiva_ce_Boot_Module__diagsMask__C)
                  00016988    00000004     tcpEcho_pem4f.oem4f (.const:ti_sysbios_family_arm_lm4_Timer_enableFunc__C)
                  0001698c    00000004     tcpEcho_pem4f.oem4f (.const:ti_sysbios_family_arm_lm4_Timer_numTimerDevices__C)
                  00016990    00000004     tcpEcho_pem4f.oem4f (.const:ti_sysbios_family_arm_lm4_Timer_startupNeeded__C)
                  00016994    00000004     tcpEcho_pem4f.oem4f (.const:ti_sysbios_family_arm_m3_Hwi_E_NMI__C)
                  00016998    00000004     tcpEcho_pem4f.oem4f (.const:ti_sysbios_family_arm_m3_Hwi_E_alreadyDefined__C)
                  0001699c    00000004     tcpEcho_pem4f.oem4f (.const:ti_sysbios_family_arm_m3_Hwi_E_busFault__C)
                  000169a0    00000004     tcpEcho_pem4f.oem4f (.const:ti_sysbios_family_arm_m3_Hwi_E_debugMon__C)
                  000169a4    00000004     tcpEcho_pem4f.oem4f (.const:ti_sysbios_family_arm_m3_Hwi_E_hardFault__C)
                  000169a8    00000004     tcpEcho_pem4f.oem4f (.const:ti_sysbios_family_arm_m3_Hwi_E_hwiLimitExceeded__C)
                  000169ac    00000004     tcpEcho_pem4f.oem4f (.const:ti_sysbios_family_arm_m3_Hwi_E_memFault__C)
                  000169b0    00000004     tcpEcho_pem4f.oem4f (.const:ti_sysbios_family_arm_m3_Hwi_E_noIsr__C)
                  000169b4    00000004     tcpEcho_pem4f.oem4f (.const:ti_sysbios_family_arm_m3_Hwi_E_reserved__C)
                  000169b8    00000004     tcpEcho_pem4f.oem4f (.const:ti_sysbios_family_arm_m3_Hwi_E_svCall__C)
                  000169bc    00000004     tcpEcho_pem4f.oem4f (.const:ti_sysbios_family_arm_m3_Hwi_E_usageFault__C)
                  000169c0    00000004     tcpEcho_pem4f.oem4f (.const:ti_sysbios_family_arm_m3_Hwi_LD_end__C)
                  000169c4    00000004     tcpEcho_pem4f.oem4f (.const:ti_sysbios_family_arm_m3_Hwi_LM_begin__C)
                  000169c8    00000004     tcpEcho_pem4f.oem4f (.const:ti_sysbios_family_arm_m3_Hwi_Module__diagsEnabled__C)
                  000169cc    00000004     tcpEcho_pem4f.oem4f (.const:ti_sysbios_family_arm_m3_Hwi_Module__diagsIncluded__C)
                  000169d0    00000004     tcpEcho_pem4f.oem4f (.const:ti_sysbios_family_arm_m3_Hwi_Module__diagsMask__C)
                  000169d4    00000004     tcpEcho_pem4f.oem4f (.const:ti_sysbios_family_arm_m3_Hwi_Module__loggerFxn1__C)
                  000169d8    00000004     tcpEcho_pem4f.oem4f (.const:ti_sysbios_family_arm_m3_Hwi_Module__loggerFxn8__C)
                  000169dc    00000004     tcpEcho_pem4f.oem4f (.const:ti_sysbios_family_arm_m3_Hwi_Module__loggerObj__C)
                  000169e0    00000004     tcpEcho_pem4f.oem4f (.const:ti_sysbios_family_arm_m3_Hwi_NUM_INTERRUPTS__C)
                  000169e4    00000004     tcpEcho_pem4f.oem4f (.const:ti_sysbios_family_arm_m3_Hwi_Object__count__C)
                  000169e8    00000004     tcpEcho_pem4f.oem4f (.const:ti_sysbios_family_arm_m3_Hwi_ccr__C)
                  000169ec    00000004     tcpEcho_pem4f.oem4f (.const:ti_sysbios_family_arm_m3_Hwi_disablePriority__C)
                  000169f0    00000004     tcpEcho_pem4f.oem4f (.const:ti_sysbios_family_arm_m3_Hwi_excHandlerFunc__C)
                  000169f4    00000004     tcpEcho_pem4f.oem4f (.const:ti_sysbios_family_arm_m3_Hwi_excHookFuncs__C)
                  000169f8    00000004     tcpEcho_pem4f.oem4f (.const:ti_sysbios_family_arm_m3_Hwi_nullIsrFunc__C)
                  000169fc    00000004     tcpEcho_pem4f.oem4f (.const:ti_sysbios_family_arm_m3_Hwi_numSparseInterrupts__C)
                  00016a00    00000004     tcpEcho_pem4f.oem4f (.const:ti_sysbios_family_arm_m3_Hwi_priGroup__C)
                  00016a04    00000004     tcpEcho_pem4f.oem4f (.const:ti_sysbios_family_arm_m3_TaskSupport_stackAlignment__C)
                  00016a08    00000004     tcpEcho_pem4f.oem4f (.const:ti_sysbios_gates_GateMutex_A_badContext__C)
                  00016a0c    00000004     tcpEcho_pem4f.oem4f (.const:ti_sysbios_gates_GateMutex_Instance_State_sem__O)
                  00016a10    00000004     tcpEcho_pem4f.oem4f (.const:ti_sysbios_gates_GateMutex_Module__diagsEnabled__C)
                  00016a14    00000004     tcpEcho_pem4f.oem4f (.const:ti_sysbios_gates_GateMutex_Module__diagsIncluded__C)
                  00016a18    00000004     tcpEcho_pem4f.oem4f (.const:ti_sysbios_gates_GateMutex_Module__diagsMask__C)
                  00016a1c    00000004     tcpEcho_pem4f.oem4f (.const:ti_sysbios_hal_Hwi_E_stackOverflow__C)
                  00016a20    00000004     tcpEcho_pem4f.oem4f (.const:ti_sysbios_heaps_HeapMem_A_align__C)
                  00016a24    00000004     tcpEcho_pem4f.oem4f (.const:ti_sysbios_heaps_HeapMem_A_heapSize__C)
                  00016a28    00000004     tcpEcho_pem4f.oem4f (.const:ti_sysbios_heaps_HeapMem_A_invalidFree__C)
                  00016a2c    00000004     tcpEcho_pem4f.oem4f (.const:ti_sysbios_heaps_HeapMem_A_zeroBlock__C)
                  00016a30    00000004     tcpEcho_pem4f.oem4f (.const:ti_sysbios_heaps_HeapMem_E_memory__C)
                  00016a34    00000004     tcpEcho_pem4f.oem4f (.const:ti_sysbios_heaps_HeapMem_Module__diagsEnabled__C)
                  00016a38    00000004     tcpEcho_pem4f.oem4f (.const:ti_sysbios_heaps_HeapMem_Module__diagsIncluded__C)
                  00016a3c    00000004     tcpEcho_pem4f.oem4f (.const:ti_sysbios_heaps_HeapMem_Module__diagsMask__C)
                  00016a40    00000004     tcpEcho_pem4f.oem4f (.const:ti_sysbios_heaps_HeapMem_Module__gateObj__C)
                  00016a44    00000004     tcpEcho_pem4f.oem4f (.const:ti_sysbios_heaps_HeapMem_Object__count__C)
                  00016a48    00000004     tcpEcho_pem4f.oem4f (.const:ti_sysbios_heaps_HeapMem_reqAlign__C)
                  00016a4c    00000004     tcpEcho_pem4f.oem4f (.const:ti_sysbios_knl_Clock_A_badThreadType__C)
                  00016a50    00000004     tcpEcho_pem4f.oem4f (.const:ti_sysbios_knl_Clock_LM_begin__C)
                  00016a54    00000004     tcpEcho_pem4f.oem4f (.const:ti_sysbios_knl_Clock_LM_tick__C)
                  00016a58    00000004     tcpEcho_pem4f.oem4f (.const:ti_sysbios_knl_Clock_LW_delayed__C)
                  00016a5c    00000004     tcpEcho_pem4f.oem4f (.const:ti_sysbios_knl_Clock_Module_State_clockQ__O)
                  00016a60    00000004     tcpEcho_pem4f.oem4f (.const:ti_sysbios_knl_Clock_Module__diagsEnabled__C)
                  00016a64    00000004     tcpEcho_pem4f.oem4f (.const:ti_sysbios_knl_Clock_Module__diagsIncluded__C)
                  00016a68    00000004     tcpEcho_pem4f.oem4f (.const:ti_sysbios_knl_Clock_Module__diagsMask__C)
                  00016a6c    00000004     tcpEcho_pem4f.oem4f (.const:ti_sysbios_knl_Clock_Module__loggerFxn1__C)
                  00016a70    00000004     tcpEcho_pem4f.oem4f (.const:ti_sysbios_knl_Clock_Module__loggerFxn2__C)
                  00016a74    00000004     tcpEcho_pem4f.oem4f (.const:ti_sysbios_knl_Clock_Module__loggerObj__C)
                  00016a78    00000004     tcpEcho_pem4f.oem4f (.const:ti_sysbios_knl_Semaphore_A_badContext__C)
                  00016a7c    00000004     tcpEcho_pem4f.oem4f (.const:ti_sysbios_knl_Semaphore_A_noEvents__C)
                  00016a80    00000004     tcpEcho_pem4f.oem4f (.const:ti_sysbios_knl_Semaphore_A_overflow__C)
                  00016a84    00000004     tcpEcho_pem4f.oem4f (.const:ti_sysbios_knl_Semaphore_A_pendTaskDisabled__C)
                  00016a88    00000004     tcpEcho_pem4f.oem4f (.const:ti_sysbios_knl_Semaphore_Instance_State_pendQ__O)
                  00016a8c    00000004     tcpEcho_pem4f.oem4f (.const:ti_sysbios_knl_Semaphore_LM_pend__C)
                  00016a90    00000004     tcpEcho_pem4f.oem4f (.const:ti_sysbios_knl_Semaphore_LM_post__C)
                  00016a94    00000004     tcpEcho_pem4f.oem4f (.const:ti_sysbios_knl_Semaphore_Module__diagsEnabled__C)
                  00016a98    00000004     tcpEcho_pem4f.oem4f (.const:ti_sysbios_knl_Semaphore_Module__diagsIncluded__C)
                  00016a9c    00000004     tcpEcho_pem4f.oem4f (.const:ti_sysbios_knl_Semaphore_Module__diagsMask__C)
                  00016aa0    00000004     tcpEcho_pem4f.oem4f (.const:ti_sysbios_knl_Semaphore_Module__loggerFxn2__C)
                  00016aa4    00000004     tcpEcho_pem4f.oem4f (.const:ti_sysbios_knl_Semaphore_Module__loggerFxn4__C)
                  00016aa8    00000004     tcpEcho_pem4f.oem4f (.const:ti_sysbios_knl_Semaphore_Module__loggerObj__C)
                  00016aac    00000004     tcpEcho_pem4f.oem4f (.const:ti_sysbios_knl_Swi_A_badPriority__C)
                  00016ab0    00000004     tcpEcho_pem4f.oem4f (.const:ti_sysbios_knl_Swi_LD_end__C)
                  00016ab4    00000004     tcpEcho_pem4f.oem4f (.const:ti_sysbios_knl_Swi_LM_begin__C)
                  00016ab8    00000004     tcpEcho_pem4f.oem4f (.const:ti_sysbios_knl_Swi_LM_post__C)
                  00016abc    00000004     tcpEcho_pem4f.oem4f (.const:ti_sysbios_knl_Swi_Module__diagsEnabled__C)
                  00016ac0    00000004     tcpEcho_pem4f.oem4f (.const:ti_sysbios_knl_Swi_Module__diagsIncluded__C)
                  00016ac4    00000004     tcpEcho_pem4f.oem4f (.const:ti_sysbios_knl_Swi_Module__diagsMask__C)
                  00016ac8    00000004     tcpEcho_pem4f.oem4f (.const:ti_sysbios_knl_Swi_Module__loggerFxn1__C)
                  00016acc    00000004     tcpEcho_pem4f.oem4f (.const:ti_sysbios_knl_Swi_Module__loggerFxn4__C)
                  00016ad0    00000004     tcpEcho_pem4f.oem4f (.const:ti_sysbios_knl_Swi_Module__loggerObj__C)
                  00016ad4    00000004     tcpEcho_pem4f.oem4f (.const:ti_sysbios_knl_Swi_Object__count__C)
                  00016ad8    00000004     tcpEcho_pem4f.oem4f (.const:ti_sysbios_knl_Swi_numPriorities__C)
                  00016adc    00000004     tcpEcho_pem4f.oem4f (.const:ti_sysbios_knl_Task_A_badPriority__C)
                  00016ae0    00000004     tcpEcho_pem4f.oem4f (.const:ti_sysbios_knl_Task_A_badTaskState__C)
                  00016ae4    00000004     tcpEcho_pem4f.oem4f (.const:ti_sysbios_knl_Task_A_badThreadType__C)
                  00016ae8    00000004     tcpEcho_pem4f.oem4f (.const:ti_sysbios_knl_Task_A_badTimeout__C)
                  00016aec    00000004     tcpEcho_pem4f.oem4f (.const:ti_sysbios_knl_Task_A_noPendElem__C)
                  00016af0    00000004     tcpEcho_pem4f.oem4f (.const:ti_sysbios_knl_Task_A_sleepTaskDisabled__C)
                  00016af4    00000004     tcpEcho_pem4f.oem4f (.const:ti_sysbios_knl_Task_E_deleteNotAllowed__C)
                  00016af8    00000004     tcpEcho_pem4f.oem4f (.const:ti_sysbios_knl_Task_E_spOutOfBounds__C)
                  00016afc    00000004     tcpEcho_pem4f.oem4f (.const:ti_sysbios_knl_Task_E_stackOverflow__C)
                  00016b00    00000004     tcpEcho_pem4f.oem4f (.const:ti_sysbios_knl_Task_LD_block__C)
                  00016b04    00000004     tcpEcho_pem4f.oem4f (.const:ti_sysbios_knl_Task_LD_exit__C)
                  00016b08    00000004     tcpEcho_pem4f.oem4f (.const:ti_sysbios_knl_Task_LD_ready__C)
                  00016b0c    00000004     tcpEcho_pem4f.oem4f (.const:ti_sysbios_knl_Task_LM_setPri__C)
                  00016b10    00000004     tcpEcho_pem4f.oem4f (.const:ti_sysbios_knl_Task_LM_sleep__C)
                  00016b14    00000004     tcpEcho_pem4f.oem4f (.const:ti_sysbios_knl_Task_LM_switch__C)
                  00016b18    00000004     tcpEcho_pem4f.oem4f (.const:ti_sysbios_knl_Task_Module_State_inactiveQ__O)
                  00016b1c    00000004     tcpEcho_pem4f.oem4f (.const:ti_sysbios_knl_Task_Module_State_terminatedQ__O)
                  00016b20    00000004     tcpEcho_pem4f.oem4f (.const:ti_sysbios_knl_Task_Module__diagsEnabled__C)
                  00016b24    00000004     tcpEcho_pem4f.oem4f (.const:ti_sysbios_knl_Task_Module__diagsIncluded__C)
                  00016b28    00000004     tcpEcho_pem4f.oem4f (.const:ti_sysbios_knl_Task_Module__diagsMask__C)
                  00016b2c    00000004     tcpEcho_pem4f.oem4f (.const:ti_sysbios_knl_Task_Module__loggerFxn2__C)
                  00016b30    00000004     tcpEcho_pem4f.oem4f (.const:ti_sysbios_knl_Task_Module__loggerFxn4__C)
                  00016b34    00000004     tcpEcho_pem4f.oem4f (.const:ti_sysbios_knl_Task_Module__loggerObj__C)
                  00016b38    00000004     tcpEcho_pem4f.oem4f (.const:ti_sysbios_knl_Task_Object__count__C)
                  00016b3c    00000004     tcpEcho_pem4f.oem4f (.const:ti_sysbios_knl_Task_Object__heap__C)
                  00016b40    00000004     tcpEcho_pem4f.oem4f (.const:ti_sysbios_knl_Task_allBlockedFunc__C)
                  00016b44    00000004     tcpEcho_pem4f.oem4f (.const:ti_sysbios_knl_Task_defaultStackHeap__C)
                  00016b48    00000004     tcpEcho_pem4f.oem4f (.const:ti_sysbios_knl_Task_defaultStackSize__C)
                  00016b4c    00000004     tcpEcho_pem4f.oem4f (.const:ti_sysbios_knl_Task_numConstructedTasks__C)
                  00016b50    00000004     tcpEcho_pem4f.oem4f (.const:ti_sysbios_knl_Task_numPriorities__C)
                  00016b54    00000004     tcpEcho_pem4f.oem4f (.const:xdc_runtime_Assert_E_assertFailed__C)
                  00016b58    00000004     tcpEcho_pem4f.oem4f (.const:xdc_runtime_Core_A_initializedParams__C)
                  00016b5c    00000004     tcpEcho_pem4f.oem4f (.const:xdc_runtime_Core_Module__diagsEnabled__C)
                  00016b60    00000004     tcpEcho_pem4f.oem4f (.const:xdc_runtime_Core_Module__diagsIncluded__C)
                  00016b64    00000004     tcpEcho_pem4f.oem4f (.const:xdc_runtime_Core_Module__diagsMask__C)
                  00016b68    00000004     tcpEcho_pem4f.oem4f (.const:xdc_runtime_Error_E_memory__C)
                  00016b6c    00000004     tcpEcho_pem4f.oem4f (.const:xdc_runtime_Error_Module__diagsEnabled__C)
                  00016b70    00000004     tcpEcho_pem4f.oem4f (.const:xdc_runtime_Error_Module__diagsIncluded__C)
                  00016b74    00000004     tcpEcho_pem4f.oem4f (.const:xdc_runtime_Error_Module__diagsMask__C)
                  00016b78    00000004     tcpEcho_pem4f.oem4f (.const:xdc_runtime_Error_Module__loggerFxn8__C)
                  00016b7c    00000004     tcpEcho_pem4f.oem4f (.const:xdc_runtime_Error_Module__loggerObj__C)
                  00016b80    00000004     tcpEcho_pem4f.oem4f (.const:xdc_runtime_Error_policyFxn__C)
                  00016b84    00000004     tcpEcho_pem4f.oem4f (.const:xdc_runtime_Error_raiseHook__C)
                  00016b88    00000004     tcpEcho_pem4f.oem4f (.const:xdc_runtime_IGateProvider_Interface__BASE__C)
                  00016b8c    00000004     tcpEcho_pem4f.oem4f (.const:xdc_runtime_IHeap_Interface__BASE__C)
                  00016b90    00000004     tcpEcho_pem4f.oem4f (.const:xdc_runtime_IModule_Interface__BASE__C)
                  00016b94    00000004     tcpEcho_pem4f.oem4f (.const:xdc_runtime_Log_L_error__C)
                  00016b98    00000004     tcpEcho_pem4f.oem4f (.const:xdc_runtime_Memory_defaultHeapInstance__C)
                  00016b9c    00000004     tcpEcho_pem4f.oem4f (.const:xdc_runtime_Startup_execImpl__C)
                  00016ba0    00000004     tcpEcho_pem4f.oem4f (.const:xdc_runtime_Startup_maxPasses__C)
                  00016ba4    00000004     tcpEcho_pem4f.oem4f (.const:xdc_runtime_Startup_sfxnRts__C)
                  00016ba8    00000004     tcpEcho_pem4f.oem4f (.const:xdc_runtime_Startup_sfxnTab__C)
                  00016bac    00000004     tcpEcho_pem4f.oem4f (.const:xdc_runtime_SysMin_bufSize__C)
                  00016bb0    00000004     tcpEcho_pem4f.oem4f (.const:xdc_runtime_SysMin_outputFunc__C)
                  00016bb4    00000004     tcpEcho_pem4f.oem4f (.const:xdc_runtime_System_Module__gateObj__C)
                  00016bb8    00000004     tcpEcho_pem4f.oem4f (.const:xdc_runtime_System_abortFxn__C)
                  00016bbc    00000004     tcpEcho_pem4f.oem4f (.const:xdc_runtime_System_exitFxn__C)
                  00016bc0    00000004     tcpEcho_pem4f.oem4f (.const:xdc_runtime_System_extendFxn__C)
                  00016bc4    00000004     tcpEcho_pem4f.oem4f (.const:xdc_runtime_System_maxAtexitHandlers__C)
                  00016bc8    00000004     tcpEcho_pem4f.oem4f (.const:xdc_runtime_Text_charTab__C)
                  00016bcc    00000004     tcpEcho_pem4f.oem4f (.const:xdc_runtime_Text_nameEmpty__C)
                  00016bd0    00000004     tcpEcho_pem4f.oem4f (.const:xdc_runtime_Text_nameStatic__C)
                  00016bd4    00000004     tcpEcho_pem4f.oem4f (.const:xdc_runtime_Text_nameUnknown__C)
                  00016bd8    00000004     tcpEcho_pem4f.oem4f (.const:xdc_runtime_Text_nodeTab__C)
                  00016bdc    00000004     tcpEcho_pem4f.oem4f (.const:xdc_runtime_Text_visitRopeFxn__C)
                  00016be0    00000002     tcpEcho_pem4f.oem4f (.const:ti_sysbios_hal_Hwi_Module__id__C)
                  00016be2    00000002     tcpEcho_pem4f.oem4f (.const:ti_sysbios_heaps_HeapMem_Module__id__C)
                  00016be4    00000002     tcpEcho_pem4f.oem4f (.const:ti_sysbios_knl_Clock_Module__id__C)
                  00016be6    00000002     tcpEcho_pem4f.oem4f (.const:ti_sysbios_knl_Clock_Module__loggerDefined__C)
                  00016be8    00000002     tcpEcho_pem4f.oem4f (.const:ti_sysbios_knl_Semaphore_Module__id__C)
                  00016bea    00000002     tcpEcho_pem4f.oem4f (.const:ti_sysbios_knl_Semaphore_Module__loggerDefined__C)
                  00016bec    00000002     tcpEcho_pem4f.oem4f (.const:ti_sysbios_knl_Swi_Module__id__C)
                  00016bee    00000002     tcpEcho_pem4f.oem4f (.const:ti_sysbios_knl_Swi_Module__loggerDefined__C)
                  00016bf0    00000002     tcpEcho_pem4f.oem4f (.const:ti_sysbios_knl_Task_Module__id__C)
                  00016bf2    00000002     tcpEcho_pem4f.oem4f (.const:ti_sysbios_knl_Task_Module__loggerDefined__C)
                  00016bf4    00000002     tcpEcho_pem4f.oem4f (.const:ti_sysbios_knl_Task_checkStackFlag__C)
                  00016bf6    00000002     tcpEcho_pem4f.oem4f (.const:ti_sysbios_knl_Task_deleteTerminatedTasks__C)
                  00016bf8    00000002     tcpEcho_pem4f.oem4f (.const:ti_sysbios_knl_Task_initStackFlag__C)
                  00016bfa    00000002     tcpEcho_pem4f.oem4f (.const:xdc_runtime_Core_Module__id__C)
                  00016bfc    00000002     tcpEcho_pem4f.oem4f (.const:xdc_runtime_Error_Module__loggerDefined__C)
                  00016bfe    00000002     tcpEcho_pem4f.oem4f (.const:xdc_runtime_Error_maxDepth__C)
                  00016c00    00000002     tcpEcho_pem4f.oem4f (.const:xdc_runtime_Memory_Module__id__C)
                  00016c02    00000002     tcpEcho_pem4f.oem4f (.const:xdc_runtime_SysMin_flushAtExit__C)
                  00016c04    00000002     tcpEcho_pem4f.oem4f (.const:xdc_runtime_Text_charCnt__C)
                  00016c06    00000002     tcpEcho_pem4f.oem4f (.const:xdc_runtime_Text_isLoaded__C)
                  00016c08    00000002     tcpEcho_pem4f.oem4f (.const:xdc_runtime_Text_registryModsLastId__C)
                  00016c0a    00000002     tcpEcho_pem4f.oem4f (.const:xdc_runtime_Text_unnamedModsLastId__C)
                  00016c0c    00000001     tcpEcho_pem4f.oem4f (.const:xdc_runtime_Error_policy__C)

.cinit     0    00016c10    00000680     
                  00016c10    00000649     (.cinit..data.load) [load image, compression = rle]
                  00017259    00000003     --HOLE-- [fill = 0]
                  0001725c    0000000c     (__TI_handler_table)
                  00017268    00000008     (.cinit..bss.load) [load image, compression = zero_init]
                  00017270    00000008     (.cinit..vecs.load) [load image, compression = zero_init]
                  00017278    00000018     (__TI_cinit_table)

.vecs      0    20000000    00000360     UNINITIALIZED
                  20000000    00000360     tcpEcho_pem4f.oem4f (.vecs)

.bss       0    20000380    0000f548     UNINITIALIZED
                  20000380    00005000     tcpEcho_pem4f.oem4f (.bss:ti_sysbios_heaps_HeapMem_Instance_State_0_buf__A)
                  20005380    000048a8     tcpEcho_pem4f.oem4f (.bss:NDK_MMBUFFER)
                  20009c28    0000004c     stk.aem4f : icmp.oem4f (.bss:_ICMPIn)
                  20009c74    0000000c     (.common:PBMQ_free)
                  20009c80    00003ef8     tcpEcho_pem4f.oem4f (.bss:NDK_PACKETMEM)
                  2000db78    00001100     tcpEcho_pem4f.oem4f (.bss:taskStackSection)
                  2000ec78    00000360     tcpEcho_pem4f.oem4f (.bss:ti_sysbios_family_arm_m3_Hwi_dispatchTable)
                  2000efd8    00000120     rtsv7M4_T_le_v4SPD16_eabi.lib : trgmsg.obj (.bss:__CIOBUF_)
                  2000f0f8    00000100     stk.aem4f : igmp.oem4f (.bss:igmp)
                  2000f1f8    000000b8               : tcp.oem4f (.bss:tcps)
                  2000f2b0    000000b4     netctrl_min_ipv4.aem4f : netsrv.oem4f (.bss:ipcfgcopy)
                  2000f364    000000a0     rtsv7M4_T_le_v4SPD16_eabi.lib : defs.obj (.bss:__TI_tmpnams)
                  2000f404    00000090     emac_tivaware.aem4f : EMACSnow.oem4f (.bss:g_pRxDescriptors)
                  2000f494    00000090                         : EMACSnow.oem4f (.bss:g_pTxDescriptors)
                  2000f524    00000080     tcpEcho_pem4f.oem4f (.bss:xdc_runtime_SysMin_Module_State_0_outbuf__A)
                  2000f5a4    00000068     stk.aem4f : ip.oem4f (.bss:ips)
                  2000f60c    00000060               : nimu.oem4f (.bss:nimu_mcb)
                  2000f66c    0000004c               : icmp.oem4f (.bss:_ICMPOut)
                  2000f6b8    00000040     emac_tivaware.aem4f : EMACSnow.oem4f (.bss:EMACSnow_private)
                  2000f6f8    00000028     stk.aem4f : vlan.oem4f (.bss:vlan_mcb)
                  2000f720    00000024     netctrl_min_ipv4.aem4f : netsrv.oem4f (.bss:oscfgcopy)
                  2000f744    00000024     stk.aem4f : udp.oem4f (.bss:udps)
                  2000f768    0000001c     rtsv7M4_T_le_v4SPD16_eabi.lib : vla_alloc.obj (.bss)
                  2000f784    0000001c     (.common:BlockCount)
                  2000f7a0    0000001c     (.common:BlockMax)
                  2000f7bc    0000001c     (.common:PageCount)
                  2000f7d8    0000001c     (.common:PageMax)
                  2000f7f4    00000014     (.common:pfnHook)
                  2000f808    00000010     (.common:igmpCount)
                  2000f818    00000010     (.common:raweths)
                  2000f828    00000010     (.common:raws)
                  2000f838    00000010     (.common:stkEvent)
                  2000f848    0000000c     (.common:tpseudo)
                  2000f854    0000000c     (.common:upseudo)
                  2000f860    00000008     (.common:emacObjects)
                  2000f868    00000008     (.common:parmbuf)
                  2000f870    00000004     (.common:IPCache)
                  2000f874    00000004     (.common:IPTrialAddress)
                  2000f878    00000004     (.common:LastCLKTime)
                  2000f87c    00000004     (.common:LastCLKValid)
                  2000f880    00000004     (.common:NetHaltFlag)
                  2000f884    00000004     (.common:NetReturnCode)
                  2000f888    00000004     (.common:TimeMS)
                  2000f88c    00000004     (.common:TimeS)
                  2000f890    00000004     (.common:TimeStart)
                  2000f894    00000004     (.common:_IGMPInDiscard)
                  2000f898    00000004     (.common:_IGMPInQuery)
                  2000f89c    00000004     (.common:_IGMPInQueryGroup)
                  2000f8a0    00000004     (.common:_IGMPInResponse)
                  2000f8a4    00000004     (.common:_IGMPOutResponse)
                  2000f8a8    00000004     (.common:g_ulStatus)
                  2000f8ac    00000004     (.common:hEvent)
                  2000f8b0    00000004     (.common:hTimer$1)
                  2000f8b4    00000004     (.common:hTimer$1)
                  2000f8b8    00000004     (.common:raweth_pcb)
                  2000f8bc    00000004     (.common:ti_sysbios_knl_Task_Instance_State_0_hookEnv__A)
                  2000f8c0    00000004     (.common:ti_sysbios_knl_Task_Instance_State_1_hookEnv__A)
                  2000f8c4    00000004     (.common:ti_sysbios_knl_Task_Instance_State_2_hookEnv__A)

.data      0    2000f8c8    00000aa8     UNINITIALIZED
                  2000f8c8    000001ac     tcpEcho_pem4f.oem4f (.data)
                  2000fa74    000000f0     rtsv7M4_T_le_v4SPD16_eabi.lib : defs.obj (.data:_ftable)
                  2000fb64    000000e4     tcpEcho_pem4f.oem4f (.data:ti_sysbios_knl_Task_Object__table__V)
                  2000fc48    000000d0     rtsv7M4_T_le_v4SPD16_eabi.lib : lowlev.obj (.data)
                  2000fd18    000000b4     stk.aem4f : exec.oem4f (.data:_ipcfg)
                  2000fdcc    00000080     tcpEcho_pem4f.oem4f (.data:ti_sysbios_knl_Swi_Module_State_0_readyQ__A)
                  2000fe4c    00000080     tcpEcho_pem4f.oem4f (.data:ti_sysbios_knl_Task_Module_State_0_readyQ__A)
                  2000fecc    0000004d     nettool_ipv4.aem4f : dhcptags.oem4f (.data:DHCPTypeCode)
                  2000ff19    00000003     --HOLE--
                  2000ff1c    00000044     tcpEcho_pem4f.oem4f (.data:ti_sysbios_knl_Task_Module__state__V)
                  2000ff60    00000040     netctrl_min_ipv4.aem4f : netsrv.oem4f (.data:CloseOrder)
                  2000ffa0    00000040                            : netsrv.oem4f (.data:OpenOrder)
                  2000ffe0    00000040     tcpEcho_pem4f.oem4f (.data:ti_sysbios_family_arm_lm4_Timer_Module_State_0_device__A)
                  20010020    00000040     tcpEcho_pem4f.oem4f (.data:ti_sysbios_family_arm_lm4_Timer_Object__table__V)
                  20010060    00000038     tcpEcho_pem4f.oem4f (.data:ti_sysbios_gates_GateMutex_Object__table__V)
                  20010098    00000034     stk.aem4f : tcptime.oem4f (.data:tcp_backoff)
                  200100cc    00000034     tcpEcho_pem4f.oem4f (.data:ti_sysbios_family_arm_m3_Hwi_Module__state__V)
                  20010100    00000031     emac_tivaware.aem4f : EMACSnow.oem4f (.data)
                  20010131    00000003     --HOLE--
                  20010134    00000030     stk.aem4f : exec.oem4f (.data:tasks)
                  20010164    00000030     tcpEcho_pem4f.oem4f (.data:ti_sysbios_knl_Swi_Object__table__V)
                  20010194    0000002c     tcpEcho_pem4f.oem4f (.data:ti_sysbios_knl_Clock_Module__state__V)
                  200101c0    00000028     stk.aem4f : rtc.oem4f (.data)
                  200101e8    00000024     os.aem4f : ossys.oem4f (.data:_oscfg)
                  2001020c    00000024              : mem.oem4f (.data)
                  20010230    00000024     tcpEcho_pem4f.oem4f (.data:ti_sysbios_BIOS_Module__state__V)
                  20010254    00000018     netctrl_min_ipv4.aem4f : netctrl.oem4f (.data)
                  2001026c    00000018     os.aem4f : task.oem4f (.data)
                  20010284    00000018     stk.aem4f : sockpcb.oem4f (.data)
                  2001029c    00000014               : rtable.oem4f (.data)
                  200102b0    00000012     EK_TM4C1294XL.obj (.data)
                  200102c2    00000002     --HOLE--
                  200102c4    00000010     rtsv7M4_T_le_v4SPD16_eabi.lib : defs.obj (.data)
                  200102d4    00000010     stk.aem4f : igmp.oem4f (.data)
                  200102e4    0000000b               : tcpout.oem4f (.data)
                  200102ef    00000001     --HOLE--
                  200102f0    00000008     gpio_tivaware.aem4f : GPIO.oem4f (.data)
                  200102f8    00000008     rtsv7M4_T_le_v4SPD16_eabi.lib : _lock.obj (.data)
                  20010300    00000008                                   : exit.obj (.data)
                  20010308    00000008     stk.aem4f : exec.oem4f (.data)
                  20010310    00000008               : icmp.oem4f (.data)
                  20010318    00000008               : ip.oem4f (.data)
                  20010320    00000008               : ipin.oem4f (.data)
                  20010328    00000008               : lli.oem4f (.data)
                  20010330    00000008               : tcp.oem4f (.data)
                  20010338    00000008               : timer.oem4f (.data)
                  20010340    00000006               : lliout.oem4f (.data)
                  20010346    00000002     --HOLE--
                  20010348    00000004     emac_tivaware.aem4f : EMAC.oem4f (.data)
                  2001034c    00000004     hal_timer_bios.aem4f : lltimer.oem4f (.data)
                  20010350    00000004     netctrl_min_ipv4.aem4f : netsrv.oem4f (.data)
                  20010354    00000004     nettool_ipv4.aem4f : config.oem4f (.data)
                  20010358    00000004     rtsv7M4_T_le_v4SPD16_eabi.lib : fopen.obj (.data)
                  2001035c    00000004                                   : stkdepth_vars.obj (.data)
                  20010360    00000004     stk.aem4f : bind.oem4f (.data)
                  20010364    00000004               : ipfrag.oem4f (.data)
                  20010368    00000004               : node.oem4f (.data)
                  2001036c    00000004               : pbm.oem4f (.data)

.stack     0    20010370    00000800     UNINITIALIZED
                  20010370    00000800     --HOLE--


LINKER GENERATED COPY TABLES

__TI_cinit_table @ 00017278 records: 3, size/record: 8, table size: 24
	.data: load addr=00016c10, load size=00000649 bytes, run addr=2000f8c8, run size=00000aa8 bytes, compression=rle
	.bss: load addr=00017268, load size=00000008 bytes, run addr=20000380, run size=0000f548 bytes, compression=zero_init
	.vecs: load addr=00017270, load size=00000008 bytes, run addr=20000000, run size=00000360 bytes, compression=zero_init


LINKER GENERATED HANDLER TABLE

__TI_handler_table @ 0001725c records: 3, size/record: 4, table size: 12
	index: 0, handler: __TI_zero_init
	index: 1, handler: __TI_decompress_rle24
	index: 2, handler: __TI_decompress_none


GLOBAL SYMBOLS: SORTED ALPHABETICALLY BY Name 

address    name
--------   ----
000138a1   BindFindByHost
00013b99   BindFindByIF
0001319d   BindFindByNet
00010659   BindFree
00014599   BindGetFirst
00014751   BindGetIF
000134ff   BindGetIFByDBCast
00014131   BindGetIP
00014755   BindGetNext
00014401   BindIF2IPHost
00014411   BindIFNet2IPHost
000141f7   BindIPHost2IF
0000761d   BindNew
2000f784   BlockCount
2000f7a0   BlockMax
00011805   C$$EXIT
0000ff3f   C$$IO$$
000078a5   CfgAddEntry
00010919   CfgEntryDeRef
00011ed9   CfgEntryGetData
00013819   CfgEntryInfo
0001383b   CfgEntryRef
0000d425   CfgExecute
0000fa19   CfgFree
0000e315   CfgGetEntry
0000fcd5   CfgGetEntryCnt
00012915   CfgGetImmediate
0000e391   CfgGetNextEntry
000110dd   CfgNew
0000d4b9   CfgRemoveEntry
000145a5   CfgSetDefault
00010211   CfgSetExecuteOrder
000125a1   CfgSetService
00016434   Code2Err
00011d65   DHCPClose
00008e39   DHCPOpen
0000f1cd   DbgPrintf
2000f8f4   DomainName
00008751   EK_TM4C1294XL_initEMAC
00012e8d   EK_TM4C1294XL_initGPIO
0000bcad   EK_TM4C1294XL_initGeneral
00012a73   EMACAddrSet
00012259   EMACConfigGet
000125d5   EMACConfigSet
00014421   EMACFrameFilterSet
0000e6f5   EMACInit
00012609   EMACIntClear
00011f15   EMACIntDisable
000121e5   EMACIntEnable
00012eb9   EMACIntStatus
00010709   EMACPHYConfigSet
000133f5   EMACPHYRead
0001341b   EMACPHYWrite
00014147   EMACReset
0001470f   EMACRxDMADescriptorListSet
0001415d   EMACRxEnable
0000b6a9   EMACSnow_InitDMADescriptors
000060dd   EMACSnow_NIMUInit
00013525   EMACSnow_emacPoll
00013e79   EMACSnow_emacSend
0000a309   EMACSnow_emacStart
0000f239   EMACSnow_emacStop
00014561   EMACSnow_emacioctl
00016940   EMACSnow_fxnTable
0000ed6d   EMACSnow_hwiIntFxn
00013bb5   EMACSnow_init
000131c5   EMACSnow_isLinkUp
000131ed   EMACSnow_pkt_service
0000e489   EMACSnow_processPhyInterrupt
00014715   EMACTxDMADescriptorListSet
000146c7   EMACTxDMAPollDemand
00014173   EMACTxEnable
00016510   EMAC_config
0001263d   EMAC_init
00013bed   ExecClose
00014431   ExecHRef
0001456f   ExecLowResource
0000cc51   ExecOpen
0001356d   ExecTimer
00012ee5   FdSignalEvent
0000fd35   FdWaitEvent
0001420d   FlashUserGet
000130c9   GPIODirModeSet
000084f1   GPIOPadConfigSet
0001116d   GPIOPinConfigure
0001434d   GPIOPinTypeEthernetLED
0001435f   GPIOPinTypeGPIOInput
00013e91   GPIOPinTypeGPIOOutput
00016528   GPIO_config
00013591   GPIO_init
2000f8f0   GatewayIP
00003b95   HOSTclock
00003b5d   HOSTclose
00003b1f   HOSTgetenv
00003ac3   HOSTlseek
00003a71   HOSTopen
00003a25   HOSTread
000039c7   HOSTrename
0000398d   HOSTtime
00003955   HOSTunlink
00003909   HOSTwrite
00011da3   ICMPChecksum
00008621   ICMPGenPacket
00004a99   ICMPInput
0000b2b1   ICMPSendRtAdv
00006c59   IGMPInput
0000ec11   IGMPJoin
0001096d   IGMPLeave
0000eddd   IGMPLeaveHostGroup
0000d675   IGMPMsg
00013215   IGMPTestGroup
00012671   IPChecksum
0000d095   IPGetRoute
0000df15   IPMsg
000043bd   IPReasm
000115e5   IPReasmFree
00012291   IPReasmTimeout
00013ea9   IPRtChange
00002c39   IPRxPacket
00002831   IPTxPacket
00005947   LED_TOGGLE
00013b21   LLIFree
0000a4f5   LLIGenArpPacket
00011629   LLIGetValidTime
000111b5   LLIMsg
0000e76d   LLINew
00006601   LLIRxPacket
0000644d   LLITxIpPacket
00011aa5   LLIValidateRoute
2000f8e8   LocalIPAddr
2000f8ec   LocalIPMask
00016924   MAXCONN
0001691c   MAX_PACKET_SIZE
000138c1   NC_BootComplete
00014441   NC_IPUpdate
000079e5   NC_NetStart
00014221   NC_NetStop
0001323d   NC_SystemClose
0000d12d   NC_SystemOpen
000138e1   NDK_hookCreate
000145b1   NDK_hookInit
00013c09   NDK_sprintf
00014759   NDK_vsprintf
0000d2f5   NIMUAddEthernetHeader
00013c25   NIMUAddHeader
00013265   NIMUCreatePacket
200102b4   NIMUDeviceTable
000135b5   NIMUFindByIndex
000126a5   NIMUFindByName
00014451   NIMUGetRsvdSizeInfo
000126d9   NIMUInit
000093bd   NIMUIoctl
0001328d   NIMUPacketService
00012f3d   NIMUPacketServiceCheck
0000ace9   NIMUReceivePacket
0000e505   NIMURegister
00014235   NIMUSendPacket
000145bd   NIMUSetRsvdSizeInfo
0000eab5   NIMUShutdown
00011ae5   NIMUUnregister
0000df95   NS_BootTask
00012ad5   NS_PreBoot
0000644b   NatMsg
0000ac11   NodeAdd
00010de5   NodeDeRef
0000fd95   NodeFind
000122c9   NodeGetRt
0001475d   NodeSetRt
000094cd   NodeTreeFree
0000f2a5   NodeTreeNew
000111fd   NodeWalk
000145c9   NotifyLowResource
00010e35   NtAddNetwork
000114cd   NtIfIdx2Ip
00014249   NtRemoveNetwork
00014733   OEMSysCritOff
000142c1   OEMSysCritOn
000130f3   PBMQ_deq
0000fa7d   PBMQ_enq
20009c74   PBMQ_free
0000e015   PBM_alloc
000145d5   PBM_close
00011b25   PBM_copy
0000e581   PBM_free
0000f6d9   PBM_open
2001020c   PITCount
20010214   PITHigh
20010210   PITUsed
2000f7bc   PageCount
2000f7d8   PageMax
00012f69   PipeClose
00009e1b   PipeRecv
0000ea3d   PipeSend
00016920   RECV_BUFFER_SIZE
00016918   ROVE_LISTEN_PORT
00013921   RTCAddHook
0000fdf5   RTCMsg
00013941   RTCRemoveHook
00006de9   RTCReport
0000eb29   RawEthRxPacket
00013441   RawEthSockClose
0000b5e1   RawEthSockNew
00012da5   RawEthSockNotify
000109c1   RawEthSockPcbAttach
00013ec1   RawEthSockPcbCleanup
0001166d   RawEthSockPcbDetach
000135d9   RawEthSockPcbFind
0001425d   RawEthSockPcbInit
00014761   RawEthSockPrAttach
00014765   RawEthSockPrDetach
00011513   RawEthSockSend
0000c1a5   RawEthSockSet
0000f311   RawEthTxPacket
000095dd   RawInput
0000e095   RawOutput
000116b1   RouteMsg
000097f9   RtCreate
00012947   RtDeRef
00009905   RtFind
00010495   RtRedirect
000100f5   RtRemove
00012dd3   RtSetFailure
00013467   RtSetTimeout
00011f8d   RtWalkBegin
000116f5   RtWalkEnd
0000ec85   RtWalkNext
00012b05   SBFlush
00012e01   SBFree
0000fc71   SBNew
000070c1   SBRead
00012979   SBSetMax
0000a8a1   SBWrite
UNDEFED    SHT$$INIT_ARRAY$$Base
UNDEFED    SHT$$INIT_ARRAY$$Limit
00010811   SemCreate
0000ecf9   SemCreateBinary
000145e1   SemDelete
00014769   SemPend
0001476d   SemPost
00014771   SemReset
0000e7e5   SockAccept
00012b35   SockBind
00012b65   SockCleanPcb
0000a5e5   SockClose
00007229   SockConnect
0000c305   SockCreatePacket
00010ffd   SockDisconnect
0001270d   SockGetName
000129ab   SockIntAbort
0000f37d   SockListen
00006931   SockNew
00009079   SockNotify
00012f95   SockPcbAttach
0000ae95   SockPcbBind
00013621   SockPcbCleanup
0000eb9d   SockPcbConnect
0000d705   SockPcbCtlError
00011b65   SockPcbDetach
00008acd   SockPcbResolve
00011245   SockPcbResolveChain
00011ba5   SockPcbRtChange
00014371   SockPrAttach
00012b95   SockPrCtlError
00013c41   SockPrDetach
00005749   SockRecv
00007da5   SockSend
00004151   SockSet
00014383   SockSetOOBData
00013d75   SockSetOOBMark
0000eebd   SockShutdown
000102c9   SockSpawnAbort
00010e81   SockValidateRoute
0001471b   SysCtlDelay
00012741   SysCtlPeripheralEnable
00012301   SysCtlPeripheralReady
00010bb5   SysCtlPeripheralReset
2000fbfc   TSK_idle
000146d7   TaskBlock
00012339   TaskCreate
00013c5d   TaskDestroy
00008019   TaskExit
0000bbf1   TaskGetEnv
00014775   TaskSelf
0000be1d   TaskSetEnv
00014779   TaskSetPri
00005949   TaskSleep
0000fe55   TcpChecksum
00012371   TcpClose
0001128d   TcpDrop
00009191   TcpGenPacket
00000efd   TcpInput
00001b6d   TcpOutput
0000dd05   TcpPrAttach
00011fc9   TcpPrConnect
00011e1f   TcpPrCtlError
00010c05   TcpPrDetach
00011be5   TcpPrDisconnect
0000f599   TcpPrInherit
00013645   TcpPrListen
00014721   TcpPrRecv
000129dd   TcpPrSend
0001199d   TcpPrSendOOB
0000b111   TcpPrSetOption
00012005   TcpSetPersist
00013fb1   TcpTimeoutAdd
00007b25   TcpTimeoutCheck
0000c879   TcpTimeoutKeep
000112d5   TcpTimeoutPersist
00013c79   TcpTimeoutRemove
0000af69   TcpTimeoutRexmt
0000f9b1   TcpTimeoutSackRexmt
00013669   TcpTimeoutWait2
000104ef   TcpValidateMetrics
0000e85d   TcpXmitTimer
00014271   TimerFree
000123a9   TimerHSTick
00011049   TimerNew
0000f811   UdpChecksum
00004f09   UdpInput
0000887d   UdpOutput
0000c9c9   VLANDeinit
0001332d   VLANInit
00010325   VLANReceivePacket
000143b9   _Dclass
00011849   _Dtest
20009c28   _ICMPIn
20010310   _ICMPInErrors
2000f66c   _ICMPOut
20010314   _ICMPOutErrors
200102dc   _IGMPForceVersion1
2000f894   _IGMPInDiscard
2000f898   _IGMPInQuery
2000f89c   _IGMPInQueryGroup
2000f8a0   _IGMPInResponse
2000f8a4   _IGMPOutResponse
20010318   _IPExecuting
20010364   _IPReasmPtr
0001131d   _LLIExpListInsert
00013355   _LLIExpListRemove
0000c3b5   _LLITimeoutCheck
0001337d   _LLITimeoutFlush
00011365   _RtExpListInsert
000133a5   _RtExpListRemove
0000f603   _RtNodeInsert
0001221f   _RtNodeRemove
00007227   _TaskInit
00008287   _TaskShutdown
00000000   __ASM__
2000efd8   __CIOBUF_
00000088   __ISA__
0000009b   __PLAT__
20010b70   __STACK_END
00000800   __STACK_SIZE
20010570   __STACK_TOP
000000bc   __TARG__
00017278   __TI_CINIT_Base
00017290   __TI_CINIT_Limit
0001725c   __TI_Handler_Table_Base
00017268   __TI_Handler_Table_Limit
00000001   __TI_args_main
0000cb11   __TI_auto_init
00005fe5   __TI_cleanup
20010300   __TI_cleanup_ptr
0000d1c5   __TI_closefile
0001457d   __TI_decompress_none
0001472d   __TI_decompress_rle24
0000ba75   __TI_doflush
20010304   __TI_dtors_ptr
200102c4   __TI_ft_end
00000bf3   __TI_printfi
0000c783   __TI_rd_ok
0000ff43   __TI_readmsg
00000000   __TI_static_base__
2000f364   __TI_tmpnams
0000ff15   __TI_writemsg
0000c721   __TI_wrt_ok
00014395   __TI_zero_init
000000e2   __TRDR__
00014789   __abort_execution
0000dbf7   __aeabi_cdcmpeq
0000dbf7   __aeabi_cdcmple
0000dc7d   __aeabi_cdrcmple
000113ad   __aeabi_d2iz
0000629f   __aeabi_dadd
00008151   __aeabi_ddiv
00009f19   __aeabi_dmul
00006295   __aeabi_dsub
00012e5d   __aeabi_i2d
00014029   __aeabi_lmul
0000e94d   __aeabi_memclr
0000e94d   __aeabi_memclr4
0000e94d   __aeabi_memclr8
0000ce25   __aeabi_memcpy
0000ce25   __aeabi_memcpy4
0000ce25   __aeabi_memcpy8
0000e94f   __aeabi_memset
0000e94f   __aeabi_memset4
0000e94f   __aeabi_memset8
200102d0   __aeabi_stderr
200102c8   __aeabi_stdin
200102cc   __aeabi_stdout
00011a63   __aeabi_uidivmod
00005b45   __aeabi_uldivmod
ffffffff   __binit__
ffffffff   __c_args__
20010370   __stack
00003fbf   __vla_alloc
00003eb1   __vla_dealloc
00003f3f   __vla_dealloc_eh
00014727   __xdc__init
2000fa70   __xdc__init__addr
00014011   _args_main
000106b1   _c_int00
00016064   _ctypes_
2000fa74   _ftable
2000fd18   _ipcfg
0001477d   _llSerialInit
0000a6d3   _llSerialServiceCheck
0000a89f   _llSerialShutdown
0001207d   _llTimerInit
000145ed   _llTimerShutdown
0000ac0f   _llUserLedInit
0000adbf   _llUserLedShutdown
200102f8   _lock
0000d795   _mmInit
00014293   _nop
200101e8   _oscfg
0001428b   _register_lock
00014285   _register_unlock
200102fc   _unlock
00011809   abort
0000f66d   accept
0000355b   add_device
00010f19   atoi
00010ca5   bind
ffffffff   binit
00003509   close
000117c1   copy_in
00010549   dhcpBuildDecline
00012775   dhcpBuildDiscover
0000feb5   dhcpBuildOptions
0000d8b5   dhcpBuildRequest
0000ef2d   dhcpDecodeType
000123e1   dhcpOptionsClear
00009c19   dhcpPacketProcess
00013147   dhcpPacketReceive
00012bc5   dhcpPacketSend
00013fc9   dhcpSocketClose
0000a7bd   dhcpSocketOpen
0000ab35   dhcpState
0000b515   dhcpVerifyMessage
00016504   emacHWAttrs
2000f860   emacObjects
20010100   enablePrefetch
00011811   exit
0000d22b   fclose
0000e295   fdClose
000119df   fdCloseSession
0000e8d5   fdOpenSession
00014189   fdint_freefdt
00013d8f   fdint_getfdt
00010ecd   fdint_lockfd
00014695   fdint_signalevent
0001469f   fdint_signaltimeout
00011e5d   fdint_unlockfd
00012419   fdint_waitevent
0000bac1   fflush
0000603b   fopen
0000f3f1   fprintf
0000cd89   fputc
00008289   fputs
00013fe1   free
00006011   freopen
0000fae1   fseek
2000f8a8   g_ulStatus
0001656c   gpioHWAttrs
000143a7   inet_addr
00009d1b   inet_aton
2000f5a4   ips
00013ff9   list_add
00014781   list_get_head
00014785   list_get_next
00013b3f   list_remove
00012bf5   list_remove_node
00011a21   listen
0000a6d5   llEnter
0000ef9d   llExit
0000b5df   llSerialService
000145f9   llTimerGetStartTime
0001177d   llTimerGetTime
0000f879   llTimerTick
000034e5   lseek
000105a3   ltoa
200102bc   macAddress
0000d38d   main
2001035c   main_func_sp
00012e2f   malloc
00013c95   memccpy
0001419f   memchr
0000ce25   memcpy
0000e955   memset
00006799   mmAlloc
0000d825   mmBulkAlloc
0000dd89   mmBulkFree
00010a15   mmCopy
0000e195   mmFree
00011c25   mmZeroInit
0000512d   networkFncRove
00016874   networkTaskRove
2000f60c   nimu_mcb
00003437   open
20010104   phyCounter
200101c0   pstrMsgName
20010334   ptTimeFirst
0000ce0d   putc
0000ce11   putchar
00008395   puts
2000f8b8   raweth_pcb
2000f818   raweths
2000f828   raws
00003413   read
00011e9b   realloc
0000f0ed   recv
00003389   remove
000033eb   remove_device
000033ad   rename
0000f00d   send
0000e9c5   sendto
0000e5fd   setsockopt
0000a97d   setvbuf
0000f8e1   socket
2000f838   stkEvent
000141b5   strchr
00014041   strcmp
00014461   strcpy
00014299   strlen
00012c25   strncpy
20010330   tcp_iss
2000f1f8   tcps
00016978   ti_catalog_arm_cortexm4_tiva_ce_Boot_A_mustNotUseEnhancedClockMode__C
0001697c   ti_catalog_arm_cortexm4_tiva_ce_Boot_Module__diagsEnabled__C
00016980   ti_catalog_arm_cortexm4_tiva_ce_Boot_Module__diagsIncluded__C
00016984   ti_catalog_arm_cortexm4_tiva_ce_Boot_Module__diagsMask__C
00015f42   ti_catalog_arm_cortexm4_tiva_ce_Boot_Module__id__C
000143f1   ti_catalog_arm_cortexm4_tiva_ce_Boot_init__I
00005545   ti_catalog_arm_cortexm4_tiva_ce_Boot_sysCtlClockFreqSetI__I
0000d54d   ti_catalog_arm_cortexm4_tiva_ce_Boot_sysCtlClockFreqSet__E
2000f8e4   ti_ndk_config_Global_HostName
2000f8c8   ti_ndk_config_Global_Id2Size
00016868   ti_ndk_config_Global_largest
0001686c   ti_ndk_config_Global_numFrameBuf
20009c80   ti_ndk_config_Global_pBufMem
2000d880   ti_ndk_config_Global_pHdrMem
20005380   ti_ndk_config_Global_pit
20005428   ti_ndk_config_Global_pitBuffer
00016860   ti_ndk_config_Global_rawPageCount
0001685c   ti_ndk_config_Global_rawPageSize
00016870   ti_ndk_config_Global_sizeFrameBuf
00016864   ti_ndk_config_Global_smallest
00008bf1   ti_ndk_config_Global_stackThread
0000c7cd   ti_ndk_config_ip_init
000105fd   ti_ndk_config_tcp_init
0001348d   ti_ndk_config_udp_init
20010230   ti_sysbios_BIOS_Module__state__V
0001478d   ti_sysbios_BIOS_RtsGateProxy_enter__E
00014791   ti_sysbios_BIOS_RtsGateProxy_leave__E
000147a1   ti_sysbios_BIOS_RtsGateProxy_query__E
00012c55   ti_sysbios_BIOS_atExitFunc__I
000136d5   ti_sysbios_BIOS_errorRaiseHook__I
000141cb   ti_sysbios_BIOS_exitFunc__I
00014471   ti_sysbios_BIOS_getCpuFreq__E
0000d423   ti_sysbios_BIOS_nullFunc__I
000136f9   ti_sysbios_BIOS_registerRTSLock__I
0001371d   ti_sysbios_BIOS_removeRTSLock__I
00013cb1   ti_sysbios_BIOS_rtsLock__I
00014059   ti_sysbios_BIOS_rtsUnlock__I
00014481   ti_sysbios_BIOS_setThreadType__E
00013741   ti_sysbios_BIOS_startFunc__I
00014491   ti_sysbios_BIOS_start__E
40000400   ti_sysbios_family_arm_ducati_CTM_ctm
2000ffe0   ti_sysbios_family_arm_lm4_Timer_Module_State_0_device__A
2000f940   ti_sysbios_family_arm_lm4_Timer_Module_State_0_handles__A
2000f938   ti_sysbios_family_arm_lm4_Timer_Module__root__V
00014071   ti_sysbios_family_arm_lm4_Timer_Module__startupDone__F
00014071   ti_sysbios_family_arm_lm4_Timer_Module__startupDone__S
2000f960   ti_sysbios_family_arm_lm4_Timer_Module__state__V
0000c465   ti_sysbios_family_arm_lm4_Timer_Module_startup__E
20010020   ti_sysbios_family_arm_lm4_Timer_Object__table__V
00016988   ti_sysbios_family_arm_lm4_Timer_enableFunc__C
0000c515   ti_sysbios_family_arm_lm4_Timer_enableTimers__I
0000bed5   ti_sysbios_family_arm_lm4_Timer_enableTiva__I
00011c65   ti_sysbios_family_arm_lm4_Timer_getCurrentTick__E
00014605   ti_sysbios_family_arm_lm4_Timer_getMaxTicks__E
0000fb45   ti_sysbios_family_arm_lm4_Timer_isrStub__E
000146df   ti_sysbios_family_arm_lm4_Timer_masterDisable__I
00014795   ti_sysbios_family_arm_lm4_Timer_masterEnable__I
0001698c   ti_sysbios_family_arm_lm4_Timer_numTimerDevices__C
0000cec1   ti_sysbios_family_arm_lm4_Timer_setNextTick__E
00004609   ti_sysbios_family_arm_lm4_Timer_start__E
00016990   ti_sysbios_family_arm_lm4_Timer_startupNeeded__C
00011ca5   ti_sysbios_family_arm_lm4_Timer_startup__E
00014471   ti_sysbios_family_arm_lm4_TimestampProvider_getFreq__E
00016994   ti_sysbios_family_arm_m3_Hwi_E_NMI__C
00016998   ti_sysbios_family_arm_m3_Hwi_E_alreadyDefined__C
0001699c   ti_sysbios_family_arm_m3_Hwi_E_busFault__C
000169a0   ti_sysbios_family_arm_m3_Hwi_E_debugMon__C
000169a4   ti_sysbios_family_arm_m3_Hwi_E_hardFault__C
000169a8   ti_sysbios_family_arm_m3_Hwi_E_hwiLimitExceeded__C
000169ac   ti_sysbios_family_arm_m3_Hwi_E_memFault__C
000169b0   ti_sysbios_family_arm_m3_Hwi_E_noIsr__C
000169b4   ti_sysbios_family_arm_m3_Hwi_E_reserved__C
000169b8   ti_sysbios_family_arm_m3_Hwi_E_svCall__C
000169bc   ti_sysbios_family_arm_m3_Hwi_E_usageFault__C
00013da9   ti_sysbios_family_arm_m3_Hwi_Handle__label__S
00010a69   ti_sysbios_family_arm_m3_Hwi_Instance_finalize__E
0000cbb1   ti_sysbios_family_arm_m3_Hwi_Instance_init__E
000169c0   ti_sysbios_family_arm_m3_Hwi_LD_end__C
000169c4   ti_sysbios_family_arm_m3_Hwi_LM_begin__C
2000f98c   ti_sysbios_family_arm_m3_Hwi_Module_State_0_excActive__A
2000f990   ti_sysbios_family_arm_m3_Hwi_Module_State_0_excContext__A
2000f994   ti_sysbios_family_arm_m3_Hwi_Module_State_0_excStack__A
000169c8   ti_sysbios_family_arm_m3_Hwi_Module__diagsEnabled__C
000169cc   ti_sysbios_family_arm_m3_Hwi_Module__diagsIncluded__C
000169d0   ti_sysbios_family_arm_m3_Hwi_Module__diagsMask__C
00016166   ti_sysbios_family_arm_m3_Hwi_Module__id__C
000164c6   ti_sysbios_family_arm_m3_Hwi_Module__loggerDefined__C
000169d4   ti_sysbios_family_arm_m3_Hwi_Module__loggerFxn1__C
000169d8   ti_sysbios_family_arm_m3_Hwi_Module__loggerFxn8__C
000169dc   ti_sysbios_family_arm_m3_Hwi_Module__loggerObj__C
2000f96c   ti_sysbios_family_arm_m3_Hwi_Module__root__V
00014089   ti_sysbios_family_arm_m3_Hwi_Module__startupDone__F
00014089   ti_sysbios_family_arm_m3_Hwi_Module__startupDone__S
200100cc   ti_sysbios_family_arm_m3_Hwi_Module__state__V
00010abd   ti_sysbios_family_arm_m3_Hwi_Module_startup__E
000169e0   ti_sysbios_family_arm_m3_Hwi_NUM_INTERRUPTS__C
000166fc   ti_sysbios_family_arm_m3_Hwi_Object__DESC__C
0001659c   ti_sysbios_family_arm_m3_Hwi_Object__PARAMS__C
000169e4   ti_sysbios_family_arm_m3_Hwi_Object__count__C
0000f455   ti_sysbios_family_arm_m3_Hwi_Object__create__S
00013961   ti_sysbios_family_arm_m3_Hwi_Object__delete__S
000142ad   ti_sysbios_family_arm_m3_Hwi_Object__get__S
2000f974   ti_sysbios_family_arm_m3_Hwi_Object__table__V
000169e8   ti_sysbios_family_arm_m3_Hwi_ccr__C
000142c1   ti_sysbios_family_arm_m3_Hwi_disableFxn__E
0001188d   ti_sysbios_family_arm_m3_Hwi_disableInterrupt__E
000169ec   ti_sysbios_family_arm_m3_Hwi_disablePriority__C
0000738d   ti_sysbios_family_arm_m3_Hwi_dispatchC__I
2000ec78   ti_sysbios_family_arm_m3_Hwi_dispatchTable
0000a401   ti_sysbios_family_arm_m3_Hwi_dispatch__I
000146e7   ti_sysbios_family_arm_m3_Hwi_doSwiRestore__I
00013765   ti_sysbios_family_arm_m3_Hwi_doTaskRestore__I
000118d1   ti_sysbios_family_arm_m3_Hwi_enableInterrupt__E
00006f59   ti_sysbios_family_arm_m3_Hwi_excBusFault__I
0000ca6d   ti_sysbios_family_arm_m3_Hwi_excDebugMon__I
0000240d   ti_sysbios_family_arm_m3_Hwi_excDumpRegs__I
00013981   ti_sysbios_family_arm_m3_Hwi_excHandlerAsm__I
000169f0   ti_sysbios_family_arm_m3_Hwi_excHandlerFunc__C
00005339   ti_sysbios_family_arm_m3_Hwi_excHandlerMax__I
000139a1   ti_sysbios_family_arm_m3_Hwi_excHandler__I
0000c5c5   ti_sysbios_family_arm_m3_Hwi_excHardFault__I
00016948   ti_sysbios_family_arm_m3_Hwi_excHookFuncs__A
000169f4   ti_sysbios_family_arm_m3_Hwi_excHookFuncs__C
000083bd   ti_sysbios_family_arm_m3_Hwi_excMemFault__I
000127dd   ti_sysbios_family_arm_m3_Hwi_excNmi__I
00012451   ti_sysbios_family_arm_m3_Hwi_excNoIsr__I
000113f5   ti_sysbios_family_arm_m3_Hwi_excReserved__I
000120b9   ti_sysbios_family_arm_m3_Hwi_excSvCall__I
000074d5   ti_sysbios_family_arm_m3_Hwi_excUsageFault__I
00012489   ti_sysbios_family_arm_m3_Hwi_getStackInfo__E
0000dae9   ti_sysbios_family_arm_m3_Hwi_initNVIC__E
00010869   ti_sysbios_family_arm_m3_Hwi_initStacks__E
000169f8   ti_sysbios_family_arm_m3_Hwi_nullIsrFunc__C
000169fc   ti_sysbios_family_arm_m3_Hwi_numSparseInterrupts__C
e000e000   ti_sysbios_family_arm_m3_Hwi_nvic
000134b3   ti_sysbios_family_arm_m3_Hwi_pendSV__I
0000b03d   ti_sysbios_family_arm_m3_Hwi_postInit__I
00016a00   ti_sysbios_family_arm_m3_Hwi_priGroup__C
20000000   ti_sysbios_family_arm_m3_Hwi_ramVectors
00000000   ti_sysbios_family_arm_m3_Hwi_resetVectors
00014733   ti_sysbios_family_arm_m3_Hwi_restoreFxn__E
000134d7   ti_sysbios_family_arm_m3_Hwi_return
000146ef   ti_sysbios_family_arm_m3_Hwi_startup__E
000142d5   ti_sysbios_family_arm_m3_Hwi_switchFromBootStack__E
00014799   ti_sysbios_family_arm_m3_TaskSupport_Module__startupDone__S
0000d9d1   ti_sysbios_family_arm_m3_TaskSupport_buildTaskStack
00014611   ti_sysbios_family_arm_m3_TaskSupport_checkStack__E
0001461d   ti_sysbios_family_arm_m3_TaskSupport_getStackAlignment__E
000144a1   ti_sysbios_family_arm_m3_TaskSupport_glue
00016a04   ti_sysbios_family_arm_m3_TaskSupport_stackAlignment__C
000120f5   ti_sysbios_family_arm_m3_TaskSupport_start__E
000140a1   ti_sysbios_family_arm_m3_TaskSupport_swap__E
00014471   ti_sysbios_family_arm_m3_TimestampProvider_getFreq__E
00013b5d   ti_sysbios_family_xxx_Hwi_switchAndRunFunc
00013dc3   ti_sysbios_gates_GateHwi_Handle__label__S
0000d943   ti_sysbios_gates_GateHwi_Instance_init__E
00016648   ti_sysbios_gates_GateHwi_Module__FXNS__C
2000f998   ti_sysbios_gates_GateHwi_Module__root__V
0001671c   ti_sysbios_gates_GateHwi_Object__DESC__C
00016890   ti_sysbios_gates_GateHwi_Object__PARAMS__C
00012c85   ti_sysbios_gates_GateHwi_Object__create__S
000139c1   ti_sysbios_gates_GateHwi_Object__delete__S
2000f9a0   ti_sysbios_gates_GateHwi_Object__table__V
000142e9   ti_sysbios_gates_GateHwi_enter__E
00014739   ti_sysbios_gates_GateHwi_leave__E
0001479d   ti_sysbios_gates_GateHwi_query__E
00016a08   ti_sysbios_gates_GateMutex_A_badContext__C
00013ddd   ti_sysbios_gates_GateMutex_Handle__label__S
00016a0c   ti_sysbios_gates_GateMutex_Instance_State_sem__O
000144b1   ti_sysbios_gates_GateMutex_Instance_finalize__E
00013ccd   ti_sysbios_gates_GateMutex_Instance_init__E
0001666c   ti_sysbios_gates_GateMutex_Module__FXNS__C
00016a10   ti_sysbios_gates_GateMutex_Module__diagsEnabled__C
00016a14   ti_sysbios_gates_GateMutex_Module__diagsIncluded__C
00016a18   ti_sysbios_gates_GateMutex_Module__diagsMask__C
00016916   ti_sysbios_gates_GateMutex_Module__id__C
2000f9a4   ti_sysbios_gates_GateMutex_Module__root__V
0001673c   ti_sysbios_gates_GateMutex_Object__DESC__C
000168a8   ti_sysbios_gates_GateMutex_Object__PARAMS__C
00012cb5   ti_sysbios_gates_GateMutex_Object__create__S
00013789   ti_sysbios_gates_GateMutex_Object__delete__S
20010060   ti_sysbios_gates_GateMutex_Object__table__V
0000bf89   ti_sysbios_gates_GateMutex_enter__E
000140b9   ti_sysbios_gates_GateMutex_leave__E
000147a1   ti_sysbios_gates_GateMutex_query__E
00016a1c   ti_sysbios_hal_Hwi_E_stackOverflow__C
000147a5   ti_sysbios_hal_Hwi_HwiProxy_Module__startupDone__S
000144c1   ti_sysbios_hal_Hwi_HwiProxy_Object__create__S
000147a9   ti_sysbios_hal_Hwi_HwiProxy_Object__delete__S
00013b7b   ti_sysbios_hal_Hwi_HwiProxy_create
000147ad   ti_sysbios_hal_Hwi_HwiProxy_delete
0001188d   ti_sysbios_hal_Hwi_HwiProxy_disableInterrupt__E
000142c1   ti_sysbios_hal_Hwi_HwiProxy_disable__E
000118d1   ti_sysbios_hal_Hwi_HwiProxy_enableInterrupt__E
00012489   ti_sysbios_hal_Hwi_HwiProxy_getStackInfo__E
00014733   ti_sysbios_hal_Hwi_HwiProxy_restore__E
000146ef   ti_sysbios_hal_Hwi_HwiProxy_startup__E
000142d5   ti_sysbios_hal_Hwi_HwiProxy_switchFromBootStack__E
000146a9   ti_sysbios_hal_Hwi_Instance_finalize__E
000133cd   ti_sysbios_hal_Hwi_Instance_init__E
00016be0   ti_sysbios_hal_Hwi_Module__id__C
2000f9ac   ti_sysbios_hal_Hwi_Module__root__V
000143cb   ti_sysbios_hal_Hwi_Module_startup__E
0001675c   ti_sysbios_hal_Hwi_Object__DESC__C
000165cc   ti_sysbios_hal_Hwi_Object__PARAMS__C
000139e1   ti_sysbios_hal_Hwi_Object__delete__S
00012811   ti_sysbios_hal_Hwi_checkStack
0000fba9   ti_sysbios_hal_Hwi_create
000147b1   ti_sysbios_hal_Hwi_delete
0001188d   ti_sysbios_hal_Hwi_disableInterrupt__E
000142c1   ti_sysbios_hal_Hwi_disable__E
000118d1   ti_sysbios_hal_Hwi_enableInterrupt__E
00012489   ti_sysbios_hal_Hwi_getStackInfo__E
00012fed   ti_sysbios_hal_Hwi_initStack
00014733   ti_sysbios_hal_Hwi_restore__E
000146ef   ti_sysbios_hal_Hwi_startup__E
00016a20   ti_sysbios_heaps_HeapMem_A_align__C
00016a24   ti_sysbios_heaps_HeapMem_A_heapSize__C
00016a28   ti_sysbios_heaps_HeapMem_A_invalidFree__C
00016a2c   ti_sysbios_heaps_HeapMem_A_zeroBlock__C
00016a30   ti_sysbios_heaps_HeapMem_E_memory__C
00013df7   ti_sysbios_heaps_HeapMem_Handle__label__S
20000380   ti_sysbios_heaps_HeapMem_Instance_State_0_buf__A
00007ee1   ti_sysbios_heaps_HeapMem_Instance_init__E
000147b5   ti_sysbios_heaps_HeapMem_Module_GateProxy_enter__E
000147b9   ti_sysbios_heaps_HeapMem_Module_GateProxy_leave__E
000147a1   ti_sysbios_heaps_HeapMem_Module_GateProxy_query__E
000165f8   ti_sysbios_heaps_HeapMem_Module__FXNS__C
00016a34   ti_sysbios_heaps_HeapMem_Module__diagsEnabled__C
00016a38   ti_sysbios_heaps_HeapMem_Module__diagsIncluded__C
00016a3c   ti_sysbios_heaps_HeapMem_Module__diagsMask__C
00016a40   ti_sysbios_heaps_HeapMem_Module__gateObj__C
00016be2   ti_sysbios_heaps_HeapMem_Module__id__C
2000f9b4   ti_sysbios_heaps_HeapMem_Module__root__V
0001677c   ti_sysbios_heaps_HeapMem_Object__DESC__C
00016690   ti_sysbios_heaps_HeapMem_Object__PARAMS__C
00016a44   ti_sysbios_heaps_HeapMem_Object__count__C
00012ce5   ti_sysbios_heaps_HeapMem_Object__create__S
00013a01   ti_sysbios_heaps_HeapMem_Object__delete__S
000142fd   ti_sysbios_heaps_HeapMem_Object__get__S
2000f9bc   ti_sysbios_heaps_HeapMem_Object__table__V
00004cd5   ti_sysbios_heaps_HeapMem_alloc__E
00004851   ti_sysbios_heaps_HeapMem_free__E
0001143d   ti_sysbios_heaps_HeapMem_getStats__E
00012131   ti_sysbios_heaps_HeapMem_init__I
0001473f   ti_sysbios_heaps_HeapMem_isBlocking__E
00016a48   ti_sysbios_heaps_HeapMem_reqAlign__C
00016a4c   ti_sysbios_knl_Clock_A_badThreadType__C
00008d15   ti_sysbios_knl_Clock_Instance_init__E
00016a50   ti_sysbios_knl_Clock_LM_begin__C
00016a54   ti_sysbios_knl_Clock_LM_tick__C
00016a58   ti_sysbios_knl_Clock_LW_delayed__C
00016a5c   ti_sysbios_knl_Clock_Module_State_clockQ__O
00016a60   ti_sysbios_knl_Clock_Module__diagsEnabled__C
00016a64   ti_sysbios_knl_Clock_Module__diagsIncluded__C
00016a68   ti_sysbios_knl_Clock_Module__diagsMask__C
00016be4   ti_sysbios_knl_Clock_Module__id__C
00016be6   ti_sysbios_knl_Clock_Module__loggerDefined__C
00016a6c   ti_sysbios_knl_Clock_Module__loggerFxn1__C
00016a70   ti_sysbios_knl_Clock_Module__loggerFxn2__C
00016a74   ti_sysbios_knl_Clock_Module__loggerObj__C
2000f9d4   ti_sysbios_knl_Clock_Module__root__V
20010194   ti_sysbios_knl_Clock_Module__state__V
00013019   ti_sysbios_knl_Clock_Module_startup__E
0001679c   ti_sysbios_knl_Clock_Object__DESC__C
000166b4   ti_sysbios_knl_Clock_Object__PARAMS__C
00014629   ti_sysbios_knl_Clock_Params__init__S
000147bd   ti_sysbios_knl_Clock_TimerProxy_Module__startupDone__S
000147c1   ti_sysbios_knl_Clock_TimerProxy_getCurrentTick__E
000147c5   ti_sysbios_knl_Clock_TimerProxy_getMaxTicks__E
000147c9   ti_sysbios_knl_Clock_TimerProxy_setNextTick__E
00011ca5   ti_sysbios_knl_Clock_TimerProxy_startup__E
0001216d   ti_sysbios_knl_Clock_create
00013045   ti_sysbios_knl_Clock_doTick__I
000124c1   ti_sysbios_knl_Clock_getTicks__E
0000ff75   ti_sysbios_knl_Clock_logTick__E
0000d25d   ti_sysbios_knl_Clock_startI__E
0000f4c1   ti_sysbios_knl_Clock_start__E
00015f41   ti_sysbios_knl_Clock_tickMode__C
00016915   ti_sysbios_knl_Clock_tickSource__C
00007c65   ti_sysbios_knl_Clock_workFunc__E
00016950   ti_sysbios_knl_Idle_funcList__A
00016958   ti_sysbios_knl_Idle_funcList__C
000146f7   ti_sysbios_knl_Idle_loop__E
00013a21   ti_sysbios_knl_Idle_run__E
00014745   ti_sysbios_knl_Queue_Instance_init__E
2000f9dc   ti_sysbios_knl_Queue_Module__root__V
000167bc   ti_sysbios_knl_Queue_Object__DESC__C
000168c0   ti_sysbios_knl_Queue_Object__PARAMS__C
00013ce9   ti_sysbios_knl_Queue_Object__destruct__S
00014635   ti_sysbios_knl_Queue_Object__get__S
00013071   ti_sysbios_knl_Queue_construct
000147cd   ti_sysbios_knl_Queue_destruct
0001458b   ti_sysbios_knl_Queue_empty__E
00016a78   ti_sysbios_knl_Semaphore_A_badContext__C
00016a7c   ti_sysbios_knl_Semaphore_A_noEvents__C
00016a80   ti_sysbios_knl_Semaphore_A_overflow__C
00016a84   ti_sysbios_knl_Semaphore_A_pendTaskDisabled__C
00016a88   ti_sysbios_knl_Semaphore_Instance_State_pendQ__O
000144d1   ti_sysbios_knl_Semaphore_Instance_finalize__E
0000cf5d   ti_sysbios_knl_Semaphore_Instance_init__E
00016a8c   ti_sysbios_knl_Semaphore_LM_pend__C
00016a90   ti_sysbios_knl_Semaphore_LM_post__C
00016a94   ti_sysbios_knl_Semaphore_Module__diagsEnabled__C
00016a98   ti_sysbios_knl_Semaphore_Module__diagsIncluded__C
00016a9c   ti_sysbios_knl_Semaphore_Module__diagsMask__C
00016be8   ti_sysbios_knl_Semaphore_Module__id__C
00016bea   ti_sysbios_knl_Semaphore_Module__loggerDefined__C
00016aa0   ti_sysbios_knl_Semaphore_Module__loggerFxn2__C
00016aa4   ti_sysbios_knl_Semaphore_Module__loggerFxn4__C
00016aa8   ti_sysbios_knl_Semaphore_Module__loggerObj__C
2000f9e4   ti_sysbios_knl_Semaphore_Module__root__V
000167dc   ti_sysbios_knl_Semaphore_Object__DESC__C
000166d8   ti_sysbios_knl_Semaphore_Object__PARAMS__C
000137ad   ti_sysbios_knl_Semaphore_Object__delete__S
00013a41   ti_sysbios_knl_Semaphore_Object__destruct__S
00014641   ti_sysbios_knl_Semaphore_Params__init__S
00012d15   ti_sysbios_knl_Semaphore_construct
00012845   ti_sysbios_knl_Semaphore_create
000147d1   ti_sysbios_knl_Semaphore_delete
000147d5   ti_sysbios_knl_Semaphore_destruct
000124f9   ti_sysbios_knl_Semaphore_pendTimeout__I
00003609   ti_sysbios_knl_Semaphore_pend__E
00007761   ti_sysbios_knl_Semaphore_post__E
000140d1   ti_sysbios_knl_Semaphore_reset__E
00016aac   ti_sysbios_knl_Swi_A_badPriority__C
00013e11   ti_sysbios_knl_Swi_Handle__label__S
00010b11   ti_sysbios_knl_Swi_Instance_finalize__E
0000aa59   ti_sysbios_knl_Swi_Instance_init__E
00016ab0   ti_sysbios_knl_Swi_LD_end__C
00016ab4   ti_sysbios_knl_Swi_LM_begin__C
00016ab8   ti_sysbios_knl_Swi_LM_post__C
2000fdcc   ti_sysbios_knl_Swi_Module_State_0_readyQ__A
00016abc   ti_sysbios_knl_Swi_Module__diagsEnabled__C
00016ac0   ti_sysbios_knl_Swi_Module__diagsIncluded__C
00016ac4   ti_sysbios_knl_Swi_Module__diagsMask__C
00016bec   ti_sysbios_knl_Swi_Module__id__C
00016bee   ti_sysbios_knl_Swi_Module__loggerDefined__C
00016ac8   ti_sysbios_knl_Swi_Module__loggerFxn1__C
00016acc   ti_sysbios_knl_Swi_Module__loggerFxn4__C
00016ad0   ti_sysbios_knl_Swi_Module__loggerObj__C
2000f9ec   ti_sysbios_knl_Swi_Module__root__V
2000f9f4   ti_sysbios_knl_Swi_Module__state__V
000137d1   ti_sysbios_knl_Swi_Module_startup__E
000167fc   ti_sysbios_knl_Swi_Object__DESC__C
00016620   ti_sysbios_knl_Swi_Object__PARAMS__C
00016ad4   ti_sysbios_knl_Swi_Object__count__C
00013a61   ti_sysbios_knl_Swi_Object__delete__S
00014311   ti_sysbios_knl_Swi_Object__get__S
20010164   ti_sysbios_knl_Swi_Object__table__V
00010381   ti_sysbios_knl_Swi_create
000147d9   ti_sysbios_knl_Swi_delete
000144e1   ti_sysbios_knl_Swi_disable__E
00016ad8   ti_sysbios_knl_Swi_numPriorities__C
0000c03d   ti_sysbios_knl_Swi_post__E
000108c1   ti_sysbios_knl_Swi_restoreHwi__E
00010f65   ti_sysbios_knl_Swi_runLoop__I
000089a5   ti_sysbios_knl_Swi_run__I
0000ffd5   ti_sysbios_knl_Swi_schedule__I
00011ce5   ti_sysbios_knl_Swi_startup__E
00016adc   ti_sysbios_knl_Task_A_badPriority__C
00016ae0   ti_sysbios_knl_Task_A_badTaskState__C
00016ae4   ti_sysbios_knl_Task_A_badThreadType__C
00016ae8   ti_sysbios_knl_Task_A_badTimeout__C
00016aec   ti_sysbios_knl_Task_A_noPendElem__C
00016af0   ti_sysbios_knl_Task_A_sleepTaskDisabled__C
00016af4   ti_sysbios_knl_Task_E_deleteNotAllowed__C
00016af8   ti_sysbios_knl_Task_E_spOutOfBounds__C
00016afc   ti_sysbios_knl_Task_E_stackOverflow__C
00013e2b   ti_sysbios_knl_Task_Handle__label__S
2000f8bc   ti_sysbios_knl_Task_Instance_State_0_hookEnv__A
2000db78   ti_sysbios_knl_Task_Instance_State_0_stack__A
2000f8c0   ti_sysbios_knl_Task_Instance_State_1_hookEnv__A
2000e378   ti_sysbios_knl_Task_Instance_State_1_stack__A
2000f8c4   ti_sysbios_knl_Task_Instance_State_2_hookEnv__A
2000e978   ti_sysbios_knl_Task_Instance_State_2_stack__A
00003bdd   ti_sysbios_knl_Task_Instance_finalize__E
00005d39   ti_sysbios_knl_Task_Instance_init__E
00016b00   ti_sysbios_knl_Task_LD_block__C
00016b04   ti_sysbios_knl_Task_LD_exit__C
00016b08   ti_sysbios_knl_Task_LD_ready__C
00016b0c   ti_sysbios_knl_Task_LM_setPri__C
00016b10   ti_sysbios_knl_Task_LM_sleep__C
00016b14   ti_sysbios_knl_Task_LM_switch__C
2000fa18   ti_sysbios_knl_Task_Module_State_0_idleTask__A
2000fe4c   ti_sysbios_knl_Task_Module_State_0_readyQ__A
00016b18   ti_sysbios_knl_Task_Module_State_inactiveQ__O
00016b1c   ti_sysbios_knl_Task_Module_State_terminatedQ__O
00016b20   ti_sysbios_knl_Task_Module__diagsEnabled__C
00016b24   ti_sysbios_knl_Task_Module__diagsIncluded__C
00016b28   ti_sysbios_knl_Task_Module__diagsMask__C
00016bf0   ti_sysbios_knl_Task_Module__id__C
00016bf2   ti_sysbios_knl_Task_Module__loggerDefined__C
00016b2c   ti_sysbios_knl_Task_Module__loggerFxn2__C
00016b30   ti_sysbios_knl_Task_Module__loggerFxn4__C
00016b34   ti_sysbios_knl_Task_Module__loggerObj__C
2000fa10   ti_sysbios_knl_Task_Module__root__V
2000ff1c   ti_sysbios_knl_Task_Module__state__V
0000de0d   ti_sysbios_knl_Task_Module_startup__E
0001681c   ti_sysbios_knl_Task_Object__DESC__C
000164c8   ti_sysbios_knl_Task_Object__PARAMS__C
00016b38   ti_sysbios_knl_Task_Object__count__C
00013a81   ti_sysbios_knl_Task_Object__delete__S
00014325   ti_sysbios_knl_Task_Object__first__S
000144f1   ti_sysbios_knl_Task_Object__get__S
00016b3c   ti_sysbios_knl_Task_Object__heap__C
00014339   ti_sysbios_knl_Task_Object__next__S
2000fb64   ti_sysbios_knl_Task_Object__table__V
0001464d   ti_sysbios_knl_Task_Params__init__S
000147dd   ti_sysbios_knl_Task_SupportProxy_Module__startupDone__S
00014611   ti_sysbios_knl_Task_SupportProxy_checkStack__E
0001461d   ti_sysbios_knl_Task_SupportProxy_getStackAlignment__E
000120f5   ti_sysbios_knl_Task_SupportProxy_start__E
000140a1   ti_sysbios_knl_Task_SupportProxy_swap__E
00016b40   ti_sysbios_knl_Task_allBlockedFunc__C
00010fb1   ti_sysbios_knl_Task_allBlockedFunction__I
0000c921   ti_sysbios_knl_Task_blockI__E
00016bf4   ti_sysbios_knl_Task_checkStackFlag__C
0000c0f1   ti_sysbios_knl_Task_checkStacks__E
000103dd   ti_sysbios_knl_Task_create
00016b44   ti_sysbios_knl_Task_defaultStackHeap__C
00016b48   ti_sysbios_knl_Task_defaultStackSize__C
000147e1   ti_sysbios_knl_Task_delete
00010cf5   ti_sysbios_knl_Task_deleteTerminatedTasksFunc__I
00016bf6   ti_sysbios_knl_Task_deleteTerminatedTasks__C
00014501   ti_sysbios_knl_Task_disable__E
00013aa1   ti_sysbios_knl_Task_enter__I
00008019   ti_sysbios_knl_Task_exit__E
000146ff   ti_sysbios_knl_Task_getHookContext__E
000168d8   ti_sysbios_knl_Task_hooks__A
00016960   ti_sysbios_knl_Task_hooks__C
00016bf8   ti_sysbios_knl_Task_initStackFlag__C
00016b4c   ti_sysbios_knl_Task_numConstructedTasks__C
00016b50   ti_sysbios_knl_Task_numPriorities__C
0000a015   ti_sysbios_knl_Task_postInit__I
00011d25   ti_sysbios_knl_Task_processVitalTaskFlag__I
00012879   ti_sysbios_knl_Task_restore__E
000092a9   ti_sysbios_knl_Task_schedule__I
00014659   ti_sysbios_knl_Task_self__E
00014707   ti_sysbios_knl_Task_setHookContext__E
00006ac5   ti_sysbios_knl_Task_setPri__E
00013ac1   ti_sysbios_knl_Task_sleepTimeout__I
00005949   ti_sysbios_knl_Task_sleep__E
0000a111   ti_sysbios_knl_Task_startCore__E
000147e5   ti_sysbios_knl_Task_startup__E
000140ad   ti_sysbios_knl_Task_swapReturn
0000b831   ti_sysbios_knl_Task_unblockI__E
2000f848   tpseudo
2000f744   udps
00003389   unlink
2000f854   upseudo
2000f6f8   vlan_mcb
000032f9   write
00016b54   xdc_runtime_Assert_E_assertFailed__C
00011485   xdc_runtime_Assert_raise__I
00016b58   xdc_runtime_Core_A_initializedParams__C
00016b5c   xdc_runtime_Core_Module__diagsEnabled__C
00016b60   xdc_runtime_Core_Module__diagsIncluded__C
00016b64   xdc_runtime_Core_Module__diagsMask__C
00016bfa   xdc_runtime_Core_Module__id__C
000128ad   xdc_runtime_Core_assignLabel__I
0001159f   xdc_runtime_Core_assignParams__I
0000b449   xdc_runtime_Core_constructObject__I
00009a11   xdc_runtime_Core_createObject__I
0000f949   xdc_runtime_Core_deleteObject__I
00016b68   xdc_runtime_Error_E_memory__C
00016b6c   xdc_runtime_Error_Module__diagsEnabled__C
00016b70   xdc_runtime_Error_Module__diagsIncluded__C
00016b74   xdc_runtime_Error_Module__diagsMask__C
00016bfc   xdc_runtime_Error_Module__loggerDefined__C
00016b78   xdc_runtime_Error_Module__loggerFxn8__C
00016b7c   xdc_runtime_Error_Module__loggerObj__C
2000fa1c   xdc_runtime_Error_Module__state__V
000140e9   xdc_runtime_Error_check__E
000147e9   xdc_runtime_Error_getMsg__E
000147ed   xdc_runtime_Error_getSite__E
00014665   xdc_runtime_Error_init__E
00016bfe   xdc_runtime_Error_maxDepth__C
00008f59   xdc_runtime_Error_policyDefault__E
00016b80   xdc_runtime_Error_policyFxn__C
00016c0c   xdc_runtime_Error_policy__C
0000f52d   xdc_runtime_Error_print__E
00016b84   xdc_runtime_Error_raiseHook__C
00013d05   xdc_runtime_Error_raiseX__E
00011915   xdc_runtime_Error_setX__E
00014671   xdc_runtime_Gate_enterSystem__E
00014511   xdc_runtime_Gate_leaveSystem__E
00016b88   xdc_runtime_IGateProvider_Interface__BASE__C
00016b8c   xdc_runtime_IHeap_Interface__BASE__C
00016b90   xdc_runtime_IModule_Interface__BASE__C
00016b94   xdc_runtime_Log_L_error__C
0001479d   xdc_runtime_Main_Module_GateProxy_query__E
000147f1   xdc_runtime_Memory_HeapProxy_alloc__E
000147f5   xdc_runtime_Memory_HeapProxy_free__E
00016c00   xdc_runtime_Memory_Module__id__C
2000fa20   xdc_runtime_Memory_Module__state__V
0000f07d   xdc_runtime_Memory_alloc__E
0001467d   xdc_runtime_Memory_calloc__E
00016b98   xdc_runtime_Memory_defaultHeapInstance__C
00014521   xdc_runtime_Memory_free__E
00014689   xdc_runtime_Memory_getMaxDefaultTypeAlign__E
00013d21   xdc_runtime_Memory_valloc__E
2000fa24   xdc_runtime_Registry_Module__state__V
00013ae1   xdc_runtime_Registry_findById__E
2000fa2c   xdc_runtime_Startup_Module__state__V
00000001   xdc_runtime_Startup__EXECFXN__C
00000001   xdc_runtime_Startup__RESETFXN__C
00016b9c   xdc_runtime_Startup_execImpl__C
00010d45   xdc_runtime_Startup_exec__E
000143dd   xdc_runtime_Startup_exec__I
000168f0   xdc_runtime_Startup_firstFxns__A
00016968   xdc_runtime_Startup_firstFxns__C
00016970   xdc_runtime_Startup_lastFxns__C
00016ba0   xdc_runtime_Startup_maxPasses__C
0000dae7   xdc_runtime_Startup_reset__I
00016928   xdc_runtime_Startup_sfxnRts__A
00016ba4   xdc_runtime_Startup_sfxnRts__C
0001683c   xdc_runtime_Startup_sfxnTab__A
00016ba8   xdc_runtime_Startup_sfxnTab__C
0000a20d   xdc_runtime_Startup_startMods__I
2000f524   xdc_runtime_SysMin_Module_State_0_outbuf__A
2000fa34   xdc_runtime_SysMin_Module__state__V
00013b01   xdc_runtime_SysMin_Module_startup__E
00012d45   xdc_runtime_SysMin_abort__E
00016bac   xdc_runtime_SysMin_bufSize__C
00013d3d   xdc_runtime_SysMin_exit__E
00016c02   xdc_runtime_SysMin_flushAtExit__C
00011959   xdc_runtime_SysMin_flush__E
00016bb0   xdc_runtime_SysMin_outputFunc__C
0001387f   xdc_runtime_SysMin_output__I
00012531   xdc_runtime_SysMin_putch__E
00014531   xdc_runtime_SysMin_ready__E
000147f9   xdc_runtime_System_Module_GateProxy_enter__E
000147fd   xdc_runtime_System_Module_GateProxy_leave__E
0001479d   xdc_runtime_System_Module_GateProxy_query__E
2000fa40   xdc_runtime_System_Module_State_0_atexitHandlers__A
00016bb4   xdc_runtime_System_Module__gateObj__C
2000fa60   xdc_runtime_System_Module__state__V
0001474b   xdc_runtime_System_Module_startup__E
00012d45   xdc_runtime_System_SupportProxy_abort__E
00013d3d   xdc_runtime_System_SupportProxy_exit__E
00011959   xdc_runtime_System_SupportProxy_flush__E
00012531   xdc_runtime_System_SupportProxy_putch__E
00014531   xdc_runtime_System_SupportProxy_ready__E
00016bb8   xdc_runtime_System_abortFxn__C
00011809   xdc_runtime_System_abortStd__E
00013d59   xdc_runtime_System_abort__E
00013e45   xdc_runtime_System_aprintf__E
00014801   xdc_runtime_System_aprintf_va__F
00012569   xdc_runtime_System_atexit__E
000134d9   xdc_runtime_System_avprintf__E
00002fbd   xdc_runtime_System_doPrint__I
00016bbc   xdc_runtime_System_exitFxn__C
00011811   xdc_runtime_System_exitStd__E
00014101   xdc_runtime_System_exit__E
00016bc0   xdc_runtime_System_extendFxn__C
00011959   xdc_runtime_System_flush__E
00010095   xdc_runtime_System_formatNum__I
00016bc4   xdc_runtime_System_maxAtexitHandlers__C
00009b15   xdc_runtime_System_printfExtend__I
00013e5f   xdc_runtime_System_printf__E
00014805   xdc_runtime_System_printf_va__F
00012d75   xdc_runtime_System_processAtExit__E
00013171   xdc_runtime_System_putchar__I
000137f5   xdc_runtime_System_vprintf__E
00014541   xdc_runtime_System_vsnprintf__E
000141e1   xdc_runtime_System_vsprintf__E
2000fa68   xdc_runtime_Text_Module__state__V
00016c04   xdc_runtime_Text_charCnt__C
00014808   xdc_runtime_Text_charTab__A
00016bc8   xdc_runtime_Text_charTab__C
0001309d   xdc_runtime_Text_cordText__E
00016c06   xdc_runtime_Text_isLoaded__C
00016bcc   xdc_runtime_Text_nameEmpty__C
00016bd0   xdc_runtime_Text_nameStatic__C
00016bd4   xdc_runtime_Text_nameUnknown__C
00016268   xdc_runtime_Text_nodeTab__A
00016bd8   xdc_runtime_Text_nodeTab__C
000128e1   xdc_runtime_Text_printVisFxn__I
00010439   xdc_runtime_Text_putLab__E
0000d5e1   xdc_runtime_Text_putMod__E
0000cff9   xdc_runtime_Text_putSite__E
00016c08   xdc_runtime_Text_registryModsLastId__C
00014119   xdc_runtime_Text_ropeText__E
00016c0a   xdc_runtime_Text_unnamedModsLastId__C
00010d95   xdc_runtime_Text_visitRope2__I
00016bdc   xdc_runtime_Text_visitRopeFxn__C
00014551   xdc_runtime_Text_visitRope__I
000121a9   xdc_runtime_Text_xprintf__I


GLOBAL SYMBOLS: SORTED BY Symbol Address 

address    name
--------   ----
00000000   __ASM__
00000000   __TI_static_base__
00000000   ti_sysbios_family_arm_m3_Hwi_resetVectors
00000001   __TI_args_main
00000001   xdc_runtime_Startup__EXECFXN__C
00000001   xdc_runtime_Startup__RESETFXN__C
00000088   __ISA__
0000009b   __PLAT__
000000bc   __TARG__
000000e2   __TRDR__
00000800   __STACK_SIZE
00000bf3   __TI_printfi
00000efd   TcpInput
00001b6d   TcpOutput
0000240d   ti_sysbios_family_arm_m3_Hwi_excDumpRegs__I
00002831   IPTxPacket
00002c39   IPRxPacket
00002fbd   xdc_runtime_System_doPrint__I
000032f9   write
00003389   remove
00003389   unlink
000033ad   rename
000033eb   remove_device
00003413   read
00003437   open
000034e5   lseek
00003509   close
0000355b   add_device
00003609   ti_sysbios_knl_Semaphore_pend__E
00003909   HOSTwrite
00003955   HOSTunlink
0000398d   HOSTtime
000039c7   HOSTrename
00003a25   HOSTread
00003a71   HOSTopen
00003ac3   HOSTlseek
00003b1f   HOSTgetenv
00003b5d   HOSTclose
00003b95   HOSTclock
00003bdd   ti_sysbios_knl_Task_Instance_finalize__E
00003eb1   __vla_dealloc
00003f3f   __vla_dealloc_eh
00003fbf   __vla_alloc
00004151   SockSet
000043bd   IPReasm
00004609   ti_sysbios_family_arm_lm4_Timer_start__E
00004851   ti_sysbios_heaps_HeapMem_free__E
00004a99   ICMPInput
00004cd5   ti_sysbios_heaps_HeapMem_alloc__E
00004f09   UdpInput
0000512d   networkFncRove
00005339   ti_sysbios_family_arm_m3_Hwi_excHandlerMax__I
00005545   ti_catalog_arm_cortexm4_tiva_ce_Boot_sysCtlClockFreqSetI__I
00005749   SockRecv
00005947   LED_TOGGLE
00005949   TaskSleep
00005949   ti_sysbios_knl_Task_sleep__E
00005b45   __aeabi_uldivmod
00005d39   ti_sysbios_knl_Task_Instance_init__E
00005fe5   __TI_cleanup
00006011   freopen
0000603b   fopen
000060dd   EMACSnow_NIMUInit
00006295   __aeabi_dsub
0000629f   __aeabi_dadd
0000644b   NatMsg
0000644d   LLITxIpPacket
00006601   LLIRxPacket
00006799   mmAlloc
00006931   SockNew
00006ac5   ti_sysbios_knl_Task_setPri__E
00006c59   IGMPInput
00006de9   RTCReport
00006f59   ti_sysbios_family_arm_m3_Hwi_excBusFault__I
000070c1   SBRead
00007227   _TaskInit
00007229   SockConnect
0000738d   ti_sysbios_family_arm_m3_Hwi_dispatchC__I
000074d5   ti_sysbios_family_arm_m3_Hwi_excUsageFault__I
0000761d   BindNew
00007761   ti_sysbios_knl_Semaphore_post__E
000078a5   CfgAddEntry
000079e5   NC_NetStart
00007b25   TcpTimeoutCheck
00007c65   ti_sysbios_knl_Clock_workFunc__E
00007da5   SockSend
00007ee1   ti_sysbios_heaps_HeapMem_Instance_init__E
00008019   TaskExit
00008019   ti_sysbios_knl_Task_exit__E
00008151   __aeabi_ddiv
00008287   _TaskShutdown
00008289   fputs
00008395   puts
000083bd   ti_sysbios_family_arm_m3_Hwi_excMemFault__I
000084f1   GPIOPadConfigSet
00008621   ICMPGenPacket
00008751   EK_TM4C1294XL_initEMAC
0000887d   UdpOutput
000089a5   ti_sysbios_knl_Swi_run__I
00008acd   SockPcbResolve
00008bf1   ti_ndk_config_Global_stackThread
00008d15   ti_sysbios_knl_Clock_Instance_init__E
00008e39   DHCPOpen
00008f59   xdc_runtime_Error_policyDefault__E
00009079   SockNotify
00009191   TcpGenPacket
000092a9   ti_sysbios_knl_Task_schedule__I
000093bd   NIMUIoctl
000094cd   NodeTreeFree
000095dd   RawInput
000097f9   RtCreate
00009905   RtFind
00009a11   xdc_runtime_Core_createObject__I
00009b15   xdc_runtime_System_printfExtend__I
00009c19   dhcpPacketProcess
00009d1b   inet_aton
00009e1b   PipeRecv
00009f19   __aeabi_dmul
0000a015   ti_sysbios_knl_Task_postInit__I
0000a111   ti_sysbios_knl_Task_startCore__E
0000a20d   xdc_runtime_Startup_startMods__I
0000a309   EMACSnow_emacStart
0000a401   ti_sysbios_family_arm_m3_Hwi_dispatch__I
0000a4f5   LLIGenArpPacket
0000a5e5   SockClose
0000a6d3   _llSerialServiceCheck
0000a6d5   llEnter
0000a7bd   dhcpSocketOpen
0000a89f   _llSerialShutdown
0000a8a1   SBWrite
0000a97d   setvbuf
0000aa59   ti_sysbios_knl_Swi_Instance_init__E
0000ab35   dhcpState
0000ac0f   _llUserLedInit
0000ac11   NodeAdd
0000ace9   NIMUReceivePacket
0000adbf   _llUserLedShutdown
0000ae95   SockPcbBind
0000af69   TcpTimeoutRexmt
0000b03d   ti_sysbios_family_arm_m3_Hwi_postInit__I
0000b111   TcpPrSetOption
0000b2b1   ICMPSendRtAdv
0000b449   xdc_runtime_Core_constructObject__I
0000b515   dhcpVerifyMessage
0000b5df   llSerialService
0000b5e1   RawEthSockNew
0000b6a9   EMACSnow_InitDMADescriptors
0000b831   ti_sysbios_knl_Task_unblockI__E
0000ba75   __TI_doflush
0000bac1   fflush
0000bbf1   TaskGetEnv
0000bcad   EK_TM4C1294XL_initGeneral
0000be1d   TaskSetEnv
0000bed5   ti_sysbios_family_arm_lm4_Timer_enableTiva__I
0000bf89   ti_sysbios_gates_GateMutex_enter__E
0000c03d   ti_sysbios_knl_Swi_post__E
0000c0f1   ti_sysbios_knl_Task_checkStacks__E
0000c1a5   RawEthSockSet
0000c305   SockCreatePacket
0000c3b5   _LLITimeoutCheck
0000c465   ti_sysbios_family_arm_lm4_Timer_Module_startup__E
0000c515   ti_sysbios_family_arm_lm4_Timer_enableTimers__I
0000c5c5   ti_sysbios_family_arm_m3_Hwi_excHardFault__I
0000c721   __TI_wrt_ok
0000c783   __TI_rd_ok
0000c7cd   ti_ndk_config_ip_init
0000c879   TcpTimeoutKeep
0000c921   ti_sysbios_knl_Task_blockI__E
0000c9c9   VLANDeinit
0000ca6d   ti_sysbios_family_arm_m3_Hwi_excDebugMon__I
0000cb11   __TI_auto_init
0000cbb1   ti_sysbios_family_arm_m3_Hwi_Instance_init__E
0000cc51   ExecOpen
0000cd89   fputc
0000ce0d   putc
0000ce11   putchar
0000ce25   __aeabi_memcpy
0000ce25   __aeabi_memcpy4
0000ce25   __aeabi_memcpy8
0000ce25   memcpy
0000cec1   ti_sysbios_family_arm_lm4_Timer_setNextTick__E
0000cf5d   ti_sysbios_knl_Semaphore_Instance_init__E
0000cff9   xdc_runtime_Text_putSite__E
0000d095   IPGetRoute
0000d12d   NC_SystemOpen
0000d1c5   __TI_closefile
0000d22b   fclose
0000d25d   ti_sysbios_knl_Clock_startI__E
0000d2f5   NIMUAddEthernetHeader
0000d38d   main
0000d423   ti_sysbios_BIOS_nullFunc__I
0000d425   CfgExecute
0000d4b9   CfgRemoveEntry
0000d54d   ti_catalog_arm_cortexm4_tiva_ce_Boot_sysCtlClockFreqSet__E
0000d5e1   xdc_runtime_Text_putMod__E
0000d675   IGMPMsg
0000d705   SockPcbCtlError
0000d795   _mmInit
0000d825   mmBulkAlloc
0000d8b5   dhcpBuildRequest
0000d943   ti_sysbios_gates_GateHwi_Instance_init__E
0000d9d1   ti_sysbios_family_arm_m3_TaskSupport_buildTaskStack
0000dae7   xdc_runtime_Startup_reset__I
0000dae9   ti_sysbios_family_arm_m3_Hwi_initNVIC__E
0000dbf7   __aeabi_cdcmpeq
0000dbf7   __aeabi_cdcmple
0000dc7d   __aeabi_cdrcmple
0000dd05   TcpPrAttach
0000dd89   mmBulkFree
0000de0d   ti_sysbios_knl_Task_Module_startup__E
0000df15   IPMsg
0000df95   NS_BootTask
0000e015   PBM_alloc
0000e095   RawOutput
0000e195   mmFree
0000e295   fdClose
0000e315   CfgGetEntry
0000e391   CfgGetNextEntry
0000e489   EMACSnow_processPhyInterrupt
0000e505   NIMURegister
0000e581   PBM_free
0000e5fd   setsockopt
0000e6f5   EMACInit
0000e76d   LLINew
0000e7e5   SockAccept
0000e85d   TcpXmitTimer
0000e8d5   fdOpenSession
0000e94d   __aeabi_memclr
0000e94d   __aeabi_memclr4
0000e94d   __aeabi_memclr8
0000e94f   __aeabi_memset
0000e94f   __aeabi_memset4
0000e94f   __aeabi_memset8
0000e955   memset
0000e9c5   sendto
0000ea3d   PipeSend
0000eab5   NIMUShutdown
0000eb29   RawEthRxPacket
0000eb9d   SockPcbConnect
0000ec11   IGMPJoin
0000ec85   RtWalkNext
0000ecf9   SemCreateBinary
0000ed6d   EMACSnow_hwiIntFxn
0000eddd   IGMPLeaveHostGroup
0000eebd   SockShutdown
0000ef2d   dhcpDecodeType
0000ef9d   llExit
0000f00d   send
0000f07d   xdc_runtime_Memory_alloc__E
0000f0ed   recv
0000f1cd   DbgPrintf
0000f239   EMACSnow_emacStop
0000f2a5   NodeTreeNew
0000f311   RawEthTxPacket
0000f37d   SockListen
0000f3f1   fprintf
0000f455   ti_sysbios_family_arm_m3_Hwi_Object__create__S
0000f4c1   ti_sysbios_knl_Clock_start__E
0000f52d   xdc_runtime_Error_print__E
0000f599   TcpPrInherit
0000f603   _RtNodeInsert
0000f66d   accept
0000f6d9   PBM_open
0000f811   UdpChecksum
0000f879   llTimerTick
0000f8e1   socket
0000f949   xdc_runtime_Core_deleteObject__I
0000f9b1   TcpTimeoutSackRexmt
0000fa19   CfgFree
0000fa7d   PBMQ_enq
0000fae1   fseek
0000fb45   ti_sysbios_family_arm_lm4_Timer_isrStub__E
0000fba9   ti_sysbios_hal_Hwi_create
0000fc71   SBNew
0000fcd5   CfgGetEntryCnt
0000fd35   FdWaitEvent
0000fd95   NodeFind
0000fdf5   RTCMsg
0000fe55   TcpChecksum
0000feb5   dhcpBuildOptions
0000ff15   __TI_writemsg
0000ff3f   C$$IO$$
0000ff43   __TI_readmsg
0000ff75   ti_sysbios_knl_Clock_logTick__E
0000ffd5   ti_sysbios_knl_Swi_schedule__I
00010095   xdc_runtime_System_formatNum__I
000100f5   RtRemove
00010211   CfgSetExecuteOrder
000102c9   SockSpawnAbort
00010325   VLANReceivePacket
00010381   ti_sysbios_knl_Swi_create
000103dd   ti_sysbios_knl_Task_create
00010439   xdc_runtime_Text_putLab__E
00010495   RtRedirect
000104ef   TcpValidateMetrics
00010549   dhcpBuildDecline
000105a3   ltoa
000105fd   ti_ndk_config_tcp_init
00010659   BindFree
000106b1   _c_int00
00010709   EMACPHYConfigSet
00010811   SemCreate
00010869   ti_sysbios_family_arm_m3_Hwi_initStacks__E
000108c1   ti_sysbios_knl_Swi_restoreHwi__E
00010919   CfgEntryDeRef
0001096d   IGMPLeave
000109c1   RawEthSockPcbAttach
00010a15   mmCopy
00010a69   ti_sysbios_family_arm_m3_Hwi_Instance_finalize__E
00010abd   ti_sysbios_family_arm_m3_Hwi_Module_startup__E
00010b11   ti_sysbios_knl_Swi_Instance_finalize__E
00010bb5   SysCtlPeripheralReset
00010c05   TcpPrDetach
00010ca5   bind
00010cf5   ti_sysbios_knl_Task_deleteTerminatedTasksFunc__I
00010d45   xdc_runtime_Startup_exec__E
00010d95   xdc_runtime_Text_visitRope2__I
00010de5   NodeDeRef
00010e35   NtAddNetwork
00010e81   SockValidateRoute
00010ecd   fdint_lockfd
00010f19   atoi
00010f65   ti_sysbios_knl_Swi_runLoop__I
00010fb1   ti_sysbios_knl_Task_allBlockedFunction__I
00010ffd   SockDisconnect
00011049   TimerNew
000110dd   CfgNew
0001116d   GPIOPinConfigure
000111b5   LLIMsg
000111fd   NodeWalk
00011245   SockPcbResolveChain
0001128d   TcpDrop
000112d5   TcpTimeoutPersist
0001131d   _LLIExpListInsert
00011365   _RtExpListInsert
000113ad   __aeabi_d2iz
000113f5   ti_sysbios_family_arm_m3_Hwi_excReserved__I
0001143d   ti_sysbios_heaps_HeapMem_getStats__E
00011485   xdc_runtime_Assert_raise__I
000114cd   NtIfIdx2Ip
00011513   RawEthSockSend
0001159f   xdc_runtime_Core_assignParams__I
000115e5   IPReasmFree
00011629   LLIGetValidTime
0001166d   RawEthSockPcbDetach
000116b1   RouteMsg
000116f5   RtWalkEnd
0001177d   llTimerGetTime
000117c1   copy_in
00011805   C$$EXIT
00011809   abort
00011809   xdc_runtime_System_abortStd__E
00011811   exit
00011811   xdc_runtime_System_exitStd__E
00011849   _Dtest
0001188d   ti_sysbios_family_arm_m3_Hwi_disableInterrupt__E
0001188d   ti_sysbios_hal_Hwi_HwiProxy_disableInterrupt__E
0001188d   ti_sysbios_hal_Hwi_disableInterrupt__E
000118d1   ti_sysbios_family_arm_m3_Hwi_enableInterrupt__E
000118d1   ti_sysbios_hal_Hwi_HwiProxy_enableInterrupt__E
000118d1   ti_sysbios_hal_Hwi_enableInterrupt__E
00011915   xdc_runtime_Error_setX__E
00011959   xdc_runtime_SysMin_flush__E
00011959   xdc_runtime_System_SupportProxy_flush__E
00011959   xdc_runtime_System_flush__E
0001199d   TcpPrSendOOB
000119df   fdCloseSession
00011a21   listen
00011a63   __aeabi_uidivmod
00011aa5   LLIValidateRoute
00011ae5   NIMUUnregister
00011b25   PBM_copy
00011b65   SockPcbDetach
00011ba5   SockPcbRtChange
00011be5   TcpPrDisconnect
00011c25   mmZeroInit
00011c65   ti_sysbios_family_arm_lm4_Timer_getCurrentTick__E
00011ca5   ti_sysbios_family_arm_lm4_Timer_startup__E
00011ca5   ti_sysbios_knl_Clock_TimerProxy_startup__E
00011ce5   ti_sysbios_knl_Swi_startup__E
00011d25   ti_sysbios_knl_Task_processVitalTaskFlag__I
00011d65   DHCPClose
00011da3   ICMPChecksum
00011e1f   TcpPrCtlError
00011e5d   fdint_unlockfd
00011e9b   realloc
00011ed9   CfgEntryGetData
00011f15   EMACIntDisable
00011f8d   RtWalkBegin
00011fc9   TcpPrConnect
00012005   TcpSetPersist
0001207d   _llTimerInit
000120b9   ti_sysbios_family_arm_m3_Hwi_excSvCall__I
000120f5   ti_sysbios_family_arm_m3_TaskSupport_start__E
000120f5   ti_sysbios_knl_Task_SupportProxy_start__E
00012131   ti_sysbios_heaps_HeapMem_init__I
0001216d   ti_sysbios_knl_Clock_create
000121a9   xdc_runtime_Text_xprintf__I
000121e5   EMACIntEnable
0001221f   _RtNodeRemove
00012259   EMACConfigGet
00012291   IPReasmTimeout
000122c9   NodeGetRt
00012301   SysCtlPeripheralReady
00012339   TaskCreate
00012371   TcpClose
000123a9   TimerHSTick
000123e1   dhcpOptionsClear
00012419   fdint_waitevent
00012451   ti_sysbios_family_arm_m3_Hwi_excNoIsr__I
00012489   ti_sysbios_family_arm_m3_Hwi_getStackInfo__E
00012489   ti_sysbios_hal_Hwi_HwiProxy_getStackInfo__E
00012489   ti_sysbios_hal_Hwi_getStackInfo__E
000124c1   ti_sysbios_knl_Clock_getTicks__E
000124f9   ti_sysbios_knl_Semaphore_pendTimeout__I
00012531   xdc_runtime_SysMin_putch__E
00012531   xdc_runtime_System_SupportProxy_putch__E
00012569   xdc_runtime_System_atexit__E
000125a1   CfgSetService
000125d5   EMACConfigSet
00012609   EMACIntClear
0001263d   EMAC_init
00012671   IPChecksum
000126a5   NIMUFindByName
000126d9   NIMUInit
0001270d   SockGetName
00012741   SysCtlPeripheralEnable
00012775   dhcpBuildDiscover
000127dd   ti_sysbios_family_arm_m3_Hwi_excNmi__I
00012811   ti_sysbios_hal_Hwi_checkStack
00012845   ti_sysbios_knl_Semaphore_create
00012879   ti_sysbios_knl_Task_restore__E
000128ad   xdc_runtime_Core_assignLabel__I
000128e1   xdc_runtime_Text_printVisFxn__I
00012915   CfgGetImmediate
00012947   RtDeRef
00012979   SBSetMax
000129ab   SockIntAbort
000129dd   TcpPrSend
00012a73   EMACAddrSet
00012ad5   NS_PreBoot
00012b05   SBFlush
00012b35   SockBind
00012b65   SockCleanPcb
00012b95   SockPrCtlError
00012bc5   dhcpPacketSend
00012bf5   list_remove_node
00012c25   strncpy
00012c55   ti_sysbios_BIOS_atExitFunc__I
00012c85   ti_sysbios_gates_GateHwi_Object__create__S
00012cb5   ti_sysbios_gates_GateMutex_Object__create__S
00012ce5   ti_sysbios_heaps_HeapMem_Object__create__S
00012d15   ti_sysbios_knl_Semaphore_construct
00012d45   xdc_runtime_SysMin_abort__E
00012d45   xdc_runtime_System_SupportProxy_abort__E
00012d75   xdc_runtime_System_processAtExit__E
00012da5   RawEthSockNotify
00012dd3   RtSetFailure
00012e01   SBFree
00012e2f   malloc
00012e5d   __aeabi_i2d
00012e8d   EK_TM4C1294XL_initGPIO
00012eb9   EMACIntStatus
00012ee5   FdSignalEvent
00012f3d   NIMUPacketServiceCheck
00012f69   PipeClose
00012f95   SockPcbAttach
00012fed   ti_sysbios_hal_Hwi_initStack
00013019   ti_sysbios_knl_Clock_Module_startup__E
00013045   ti_sysbios_knl_Clock_doTick__I
00013071   ti_sysbios_knl_Queue_construct
0001309d   xdc_runtime_Text_cordText__E
000130c9   GPIODirModeSet
000130f3   PBMQ_deq
00013147   dhcpPacketReceive
00013171   xdc_runtime_System_putchar__I
0001319d   BindFindByNet
000131c5   EMACSnow_isLinkUp
000131ed   EMACSnow_pkt_service
00013215   IGMPTestGroup
0001323d   NC_SystemClose
00013265   NIMUCreatePacket
0001328d   NIMUPacketService
0001332d   VLANInit
00013355   _LLIExpListRemove
0001337d   _LLITimeoutFlush
000133a5   _RtExpListRemove
000133cd   ti_sysbios_hal_Hwi_Instance_init__E
000133f5   EMACPHYRead
0001341b   EMACPHYWrite
00013441   RawEthSockClose
00013467   RtSetTimeout
0001348d   ti_ndk_config_udp_init
000134b3   ti_sysbios_family_arm_m3_Hwi_pendSV__I
000134d7   ti_sysbios_family_arm_m3_Hwi_return
000134d9   xdc_runtime_System_avprintf__E
000134ff   BindGetIFByDBCast
00013525   EMACSnow_emacPoll
0001356d   ExecTimer
00013591   GPIO_init
000135b5   NIMUFindByIndex
000135d9   RawEthSockPcbFind
00013621   SockPcbCleanup
00013645   TcpPrListen
00013669   TcpTimeoutWait2
000136d5   ti_sysbios_BIOS_errorRaiseHook__I
000136f9   ti_sysbios_BIOS_registerRTSLock__I
0001371d   ti_sysbios_BIOS_removeRTSLock__I
00013741   ti_sysbios_BIOS_startFunc__I
00013765   ti_sysbios_family_arm_m3_Hwi_doTaskRestore__I
00013789   ti_sysbios_gates_GateMutex_Object__delete__S
000137ad   ti_sysbios_knl_Semaphore_Object__delete__S
000137d1   ti_sysbios_knl_Swi_Module_startup__E
000137f5   xdc_runtime_System_vprintf__E
00013819   CfgEntryInfo
0001383b   CfgEntryRef
0001387f   xdc_runtime_SysMin_output__I
000138a1   BindFindByHost
000138c1   NC_BootComplete
000138e1   NDK_hookCreate
00013921   RTCAddHook
00013941   RTCRemoveHook
00013961   ti_sysbios_family_arm_m3_Hwi_Object__delete__S
00013981   ti_sysbios_family_arm_m3_Hwi_excHandlerAsm__I
000139a1   ti_sysbios_family_arm_m3_Hwi_excHandler__I
000139c1   ti_sysbios_gates_GateHwi_Object__delete__S
000139e1   ti_sysbios_hal_Hwi_Object__delete__S
00013a01   ti_sysbios_heaps_HeapMem_Object__delete__S
00013a21   ti_sysbios_knl_Idle_run__E
00013a41   ti_sysbios_knl_Semaphore_Object__destruct__S
00013a61   ti_sysbios_knl_Swi_Object__delete__S
00013a81   ti_sysbios_knl_Task_Object__delete__S
00013aa1   ti_sysbios_knl_Task_enter__I
00013ac1   ti_sysbios_knl_Task_sleepTimeout__I
00013ae1   xdc_runtime_Registry_findById__E
00013b01   xdc_runtime_SysMin_Module_startup__E
00013b21   LLIFree
00013b3f   list_remove
00013b5d   ti_sysbios_family_xxx_Hwi_switchAndRunFunc
00013b7b   ti_sysbios_hal_Hwi_HwiProxy_create
00013b99   BindFindByIF
00013bb5   EMACSnow_init
00013bed   ExecClose
00013c09   NDK_sprintf
00013c25   NIMUAddHeader
00013c41   SockPrDetach
00013c5d   TaskDestroy
00013c79   TcpTimeoutRemove
00013c95   memccpy
00013cb1   ti_sysbios_BIOS_rtsLock__I
00013ccd   ti_sysbios_gates_GateMutex_Instance_init__E
00013ce9   ti_sysbios_knl_Queue_Object__destruct__S
00013d05   xdc_runtime_Error_raiseX__E
00013d21   xdc_runtime_Memory_valloc__E
00013d3d   xdc_runtime_SysMin_exit__E
00013d3d   xdc_runtime_System_SupportProxy_exit__E
00013d59   xdc_runtime_System_abort__E
00013d75   SockSetOOBMark
00013d8f   fdint_getfdt
00013da9   ti_sysbios_family_arm_m3_Hwi_Handle__label__S
00013dc3   ti_sysbios_gates_GateHwi_Handle__label__S
00013ddd   ti_sysbios_gates_GateMutex_Handle__label__S
00013df7   ti_sysbios_heaps_HeapMem_Handle__label__S
00013e11   ti_sysbios_knl_Swi_Handle__label__S
00013e2b   ti_sysbios_knl_Task_Handle__label__S
00013e45   xdc_runtime_System_aprintf__E
00013e5f   xdc_runtime_System_printf__E
00013e79   EMACSnow_emacSend
00013e91   GPIOPinTypeGPIOOutput
00013ea9   IPRtChange
00013ec1   RawEthSockPcbCleanup
00013fb1   TcpTimeoutAdd
00013fc9   dhcpSocketClose
00013fe1   free
00013ff9   list_add
00014011   _args_main
00014029   __aeabi_lmul
00014041   strcmp
00014059   ti_sysbios_BIOS_rtsUnlock__I
00014071   ti_sysbios_family_arm_lm4_Timer_Module__startupDone__F
00014071   ti_sysbios_family_arm_lm4_Timer_Module__startupDone__S
00014089   ti_sysbios_family_arm_m3_Hwi_Module__startupDone__F
00014089   ti_sysbios_family_arm_m3_Hwi_Module__startupDone__S
000140a1   ti_sysbios_family_arm_m3_TaskSupport_swap__E
000140a1   ti_sysbios_knl_Task_SupportProxy_swap__E
000140ad   ti_sysbios_knl_Task_swapReturn
000140b9   ti_sysbios_gates_GateMutex_leave__E
000140d1   ti_sysbios_knl_Semaphore_reset__E
000140e9   xdc_runtime_Error_check__E
00014101   xdc_runtime_System_exit__E
00014119   xdc_runtime_Text_ropeText__E
00014131   BindGetIP
00014147   EMACReset
0001415d   EMACRxEnable
00014173   EMACTxEnable
00014189   fdint_freefdt
0001419f   memchr
000141b5   strchr
000141cb   ti_sysbios_BIOS_exitFunc__I
000141e1   xdc_runtime_System_vsprintf__E
000141f7   BindIPHost2IF
0001420d   FlashUserGet
00014221   NC_NetStop
00014235   NIMUSendPacket
00014249   NtRemoveNetwork
0001425d   RawEthSockPcbInit
00014271   TimerFree
00014285   _register_unlock
0001428b   _register_lock
00014293   _nop
00014299   strlen
000142ad   ti_sysbios_family_arm_m3_Hwi_Object__get__S
000142c1   OEMSysCritOn
000142c1   ti_sysbios_family_arm_m3_Hwi_disableFxn__E
000142c1   ti_sysbios_hal_Hwi_HwiProxy_disable__E
000142c1   ti_sysbios_hal_Hwi_disable__E
000142d5   ti_sysbios_family_arm_m3_Hwi_switchFromBootStack__E
000142d5   ti_sysbios_hal_Hwi_HwiProxy_switchFromBootStack__E
000142e9   ti_sysbios_gates_GateHwi_enter__E
000142fd   ti_sysbios_heaps_HeapMem_Object__get__S
00014311   ti_sysbios_knl_Swi_Object__get__S
00014325   ti_sysbios_knl_Task_Object__first__S
00014339   ti_sysbios_knl_Task_Object__next__S
0001434d   GPIOPinTypeEthernetLED
0001435f   GPIOPinTypeGPIOInput
00014371   SockPrAttach
00014383   SockSetOOBData
00014395   __TI_zero_init
000143a7   inet_addr
000143b9   _Dclass
000143cb   ti_sysbios_hal_Hwi_Module_startup__E
000143dd   xdc_runtime_Startup_exec__I
000143f1   ti_catalog_arm_cortexm4_tiva_ce_Boot_init__I
00014401   BindIF2IPHost
00014411   BindIFNet2IPHost
00014421   EMACFrameFilterSet
00014431   ExecHRef
00014441   NC_IPUpdate
00014451   NIMUGetRsvdSizeInfo
00014461   strcpy
00014471   ti_sysbios_BIOS_getCpuFreq__E
00014471   ti_sysbios_family_arm_lm4_TimestampProvider_getFreq__E
00014471   ti_sysbios_family_arm_m3_TimestampProvider_getFreq__E
00014481   ti_sysbios_BIOS_setThreadType__E
00014491   ti_sysbios_BIOS_start__E
000144a1   ti_sysbios_family_arm_m3_TaskSupport_glue
000144b1   ti_sysbios_gates_GateMutex_Instance_finalize__E
000144c1   ti_sysbios_hal_Hwi_HwiProxy_Object__create__S
000144d1   ti_sysbios_knl_Semaphore_Instance_finalize__E
000144e1   ti_sysbios_knl_Swi_disable__E
000144f1   ti_sysbios_knl_Task_Object__get__S
00014501   ti_sysbios_knl_Task_disable__E
00014511   xdc_runtime_Gate_leaveSystem__E
00014521   xdc_runtime_Memory_free__E
00014531   xdc_runtime_SysMin_ready__E
00014531   xdc_runtime_System_SupportProxy_ready__E
00014541   xdc_runtime_System_vsnprintf__E
00014551   xdc_runtime_Text_visitRope__I
00014561   EMACSnow_emacioctl
0001456f   ExecLowResource
0001457d   __TI_decompress_none
0001458b   ti_sysbios_knl_Queue_empty__E
00014599   BindGetFirst
000145a5   CfgSetDefault
000145b1   NDK_hookInit
000145bd   NIMUSetRsvdSizeInfo
000145c9   NotifyLowResource
000145d5   PBM_close
000145e1   SemDelete
000145ed   _llTimerShutdown
000145f9   llTimerGetStartTime
00014605   ti_sysbios_family_arm_lm4_Timer_getMaxTicks__E
00014611   ti_sysbios_family_arm_m3_TaskSupport_checkStack__E
00014611   ti_sysbios_knl_Task_SupportProxy_checkStack__E
0001461d   ti_sysbios_family_arm_m3_TaskSupport_getStackAlignment__E
0001461d   ti_sysbios_knl_Task_SupportProxy_getStackAlignment__E
00014629   ti_sysbios_knl_Clock_Params__init__S
00014635   ti_sysbios_knl_Queue_Object__get__S
00014641   ti_sysbios_knl_Semaphore_Params__init__S
0001464d   ti_sysbios_knl_Task_Params__init__S
00014659   ti_sysbios_knl_Task_self__E
00014665   xdc_runtime_Error_init__E
00014671   xdc_runtime_Gate_enterSystem__E
0001467d   xdc_runtime_Memory_calloc__E
00014689   xdc_runtime_Memory_getMaxDefaultTypeAlign__E
00014695   fdint_signalevent
0001469f   fdint_signaltimeout
000146a9   ti_sysbios_hal_Hwi_Instance_finalize__E
000146c7   EMACTxDMAPollDemand
000146d7   TaskBlock
000146df   ti_sysbios_family_arm_lm4_Timer_masterDisable__I
000146e7   ti_sysbios_family_arm_m3_Hwi_doSwiRestore__I
000146ef   ti_sysbios_family_arm_m3_Hwi_startup__E
000146ef   ti_sysbios_hal_Hwi_HwiProxy_startup__E
000146ef   ti_sysbios_hal_Hwi_startup__E
000146f7   ti_sysbios_knl_Idle_loop__E
000146ff   ti_sysbios_knl_Task_getHookContext__E
00014707   ti_sysbios_knl_Task_setHookContext__E
0001470f   EMACRxDMADescriptorListSet
00014715   EMACTxDMADescriptorListSet
0001471b   SysCtlDelay
00014721   TcpPrRecv
00014727   __xdc__init
0001472d   __TI_decompress_rle24
00014733   OEMSysCritOff
00014733   ti_sysbios_family_arm_m3_Hwi_restoreFxn__E
00014733   ti_sysbios_hal_Hwi_HwiProxy_restore__E
00014733   ti_sysbios_hal_Hwi_restore__E
00014739   ti_sysbios_gates_GateHwi_leave__E
0001473f   ti_sysbios_heaps_HeapMem_isBlocking__E
00014745   ti_sysbios_knl_Queue_Instance_init__E
0001474b   xdc_runtime_System_Module_startup__E
00014751   BindGetIF
00014755   BindGetNext
00014759   NDK_vsprintf
0001475d   NodeSetRt
00014761   RawEthSockPrAttach
00014765   RawEthSockPrDetach
00014769   SemPend
0001476d   SemPost
00014771   SemReset
00014775   TaskSelf
00014779   TaskSetPri
0001477d   _llSerialInit
00014781   list_get_head
00014785   list_get_next
00014789   __abort_execution
0001478d   ti_sysbios_BIOS_RtsGateProxy_enter__E
00014791   ti_sysbios_BIOS_RtsGateProxy_leave__E
00014795   ti_sysbios_family_arm_lm4_Timer_masterEnable__I
00014799   ti_sysbios_family_arm_m3_TaskSupport_Module__startupDone__S
0001479d   ti_sysbios_gates_GateHwi_query__E
0001479d   xdc_runtime_Main_Module_GateProxy_query__E
0001479d   xdc_runtime_System_Module_GateProxy_query__E
000147a1   ti_sysbios_BIOS_RtsGateProxy_query__E
000147a1   ti_sysbios_gates_GateMutex_query__E
000147a1   ti_sysbios_heaps_HeapMem_Module_GateProxy_query__E
000147a5   ti_sysbios_hal_Hwi_HwiProxy_Module__startupDone__S
000147a9   ti_sysbios_hal_Hwi_HwiProxy_Object__delete__S
000147ad   ti_sysbios_hal_Hwi_HwiProxy_delete
000147b1   ti_sysbios_hal_Hwi_delete
000147b5   ti_sysbios_heaps_HeapMem_Module_GateProxy_enter__E
000147b9   ti_sysbios_heaps_HeapMem_Module_GateProxy_leave__E
000147bd   ti_sysbios_knl_Clock_TimerProxy_Module__startupDone__S
000147c1   ti_sysbios_knl_Clock_TimerProxy_getCurrentTick__E
000147c5   ti_sysbios_knl_Clock_TimerProxy_getMaxTicks__E
000147c9   ti_sysbios_knl_Clock_TimerProxy_setNextTick__E
000147cd   ti_sysbios_knl_Queue_destruct
000147d1   ti_sysbios_knl_Semaphore_delete
000147d5   ti_sysbios_knl_Semaphore_destruct
000147d9   ti_sysbios_knl_Swi_delete
000147dd   ti_sysbios_knl_Task_SupportProxy_Module__startupDone__S
000147e1   ti_sysbios_knl_Task_delete
000147e5   ti_sysbios_knl_Task_startup__E
000147e9   xdc_runtime_Error_getMsg__E
000147ed   xdc_runtime_Error_getSite__E
000147f1   xdc_runtime_Memory_HeapProxy_alloc__E
000147f5   xdc_runtime_Memory_HeapProxy_free__E
000147f9   xdc_runtime_System_Module_GateProxy_enter__E
000147fd   xdc_runtime_System_Module_GateProxy_leave__E
00014801   xdc_runtime_System_aprintf_va__F
00014805   xdc_runtime_System_printf_va__F
00014808   xdc_runtime_Text_charTab__A
00015f41   ti_sysbios_knl_Clock_tickMode__C
00015f42   ti_catalog_arm_cortexm4_tiva_ce_Boot_Module__id__C
00016064   _ctypes_
00016166   ti_sysbios_family_arm_m3_Hwi_Module__id__C
00016268   xdc_runtime_Text_nodeTab__A
00016434   Code2Err
000164c6   ti_sysbios_family_arm_m3_Hwi_Module__loggerDefined__C
000164c8   ti_sysbios_knl_Task_Object__PARAMS__C
00016504   emacHWAttrs
00016510   EMAC_config
00016528   GPIO_config
0001656c   gpioHWAttrs
0001659c   ti_sysbios_family_arm_m3_Hwi_Object__PARAMS__C
000165cc   ti_sysbios_hal_Hwi_Object__PARAMS__C
000165f8   ti_sysbios_heaps_HeapMem_Module__FXNS__C
00016620   ti_sysbios_knl_Swi_Object__PARAMS__C
00016648   ti_sysbios_gates_GateHwi_Module__FXNS__C
0001666c   ti_sysbios_gates_GateMutex_Module__FXNS__C
00016690   ti_sysbios_heaps_HeapMem_Object__PARAMS__C
000166b4   ti_sysbios_knl_Clock_Object__PARAMS__C
000166d8   ti_sysbios_knl_Semaphore_Object__PARAMS__C
000166fc   ti_sysbios_family_arm_m3_Hwi_Object__DESC__C
0001671c   ti_sysbios_gates_GateHwi_Object__DESC__C
0001673c   ti_sysbios_gates_GateMutex_Object__DESC__C
0001675c   ti_sysbios_hal_Hwi_Object__DESC__C
0001677c   ti_sysbios_heaps_HeapMem_Object__DESC__C
0001679c   ti_sysbios_knl_Clock_Object__DESC__C
000167bc   ti_sysbios_knl_Queue_Object__DESC__C
000167dc   ti_sysbios_knl_Semaphore_Object__DESC__C
000167fc   ti_sysbios_knl_Swi_Object__DESC__C
0001681c   ti_sysbios_knl_Task_Object__DESC__C
0001683c   xdc_runtime_Startup_sfxnTab__A
0001685c   ti_ndk_config_Global_rawPageSize
00016860   ti_ndk_config_Global_rawPageCount
00016864   ti_ndk_config_Global_smallest
00016868   ti_ndk_config_Global_largest
0001686c   ti_ndk_config_Global_numFrameBuf
00016870   ti_ndk_config_Global_sizeFrameBuf
00016874   networkTaskRove
00016890   ti_sysbios_gates_GateHwi_Object__PARAMS__C
000168a8   ti_sysbios_gates_GateMutex_Object__PARAMS__C
000168c0   ti_sysbios_knl_Queue_Object__PARAMS__C
000168d8   ti_sysbios_knl_Task_hooks__A
000168f0   xdc_runtime_Startup_firstFxns__A
00016915   ti_sysbios_knl_Clock_tickSource__C
00016916   ti_sysbios_gates_GateMutex_Module__id__C
00016918   ROVE_LISTEN_PORT
0001691c   MAX_PACKET_SIZE
00016920   RECV_BUFFER_SIZE
00016924   MAXCONN
00016928   xdc_runtime_Startup_sfxnRts__A
00016940   EMACSnow_fxnTable
00016948   ti_sysbios_family_arm_m3_Hwi_excHookFuncs__A
00016950   ti_sysbios_knl_Idle_funcList__A
00016958   ti_sysbios_knl_Idle_funcList__C
00016960   ti_sysbios_knl_Task_hooks__C
00016968   xdc_runtime_Startup_firstFxns__C
00016970   xdc_runtime_Startup_lastFxns__C
00016978   ti_catalog_arm_cortexm4_tiva_ce_Boot_A_mustNotUseEnhancedClockMode__C
0001697c   ti_catalog_arm_cortexm4_tiva_ce_Boot_Module__diagsEnabled__C
00016980   ti_catalog_arm_cortexm4_tiva_ce_Boot_Module__diagsIncluded__C
00016984   ti_catalog_arm_cortexm4_tiva_ce_Boot_Module__diagsMask__C
00016988   ti_sysbios_family_arm_lm4_Timer_enableFunc__C
0001698c   ti_sysbios_family_arm_lm4_Timer_numTimerDevices__C
00016990   ti_sysbios_family_arm_lm4_Timer_startupNeeded__C
00016994   ti_sysbios_family_arm_m3_Hwi_E_NMI__C
00016998   ti_sysbios_family_arm_m3_Hwi_E_alreadyDefined__C
0001699c   ti_sysbios_family_arm_m3_Hwi_E_busFault__C
000169a0   ti_sysbios_family_arm_m3_Hwi_E_debugMon__C
000169a4   ti_sysbios_family_arm_m3_Hwi_E_hardFault__C
000169a8   ti_sysbios_family_arm_m3_Hwi_E_hwiLimitExceeded__C
000169ac   ti_sysbios_family_arm_m3_Hwi_E_memFault__C
000169b0   ti_sysbios_family_arm_m3_Hwi_E_noIsr__C
000169b4   ti_sysbios_family_arm_m3_Hwi_E_reserved__C
000169b8   ti_sysbios_family_arm_m3_Hwi_E_svCall__C
000169bc   ti_sysbios_family_arm_m3_Hwi_E_usageFault__C
000169c0   ti_sysbios_family_arm_m3_Hwi_LD_end__C
000169c4   ti_sysbios_family_arm_m3_Hwi_LM_begin__C
000169c8   ti_sysbios_family_arm_m3_Hwi_Module__diagsEnabled__C
000169cc   ti_sysbios_family_arm_m3_Hwi_Module__diagsIncluded__C
000169d0   ti_sysbios_family_arm_m3_Hwi_Module__diagsMask__C
000169d4   ti_sysbios_family_arm_m3_Hwi_Module__loggerFxn1__C
000169d8   ti_sysbios_family_arm_m3_Hwi_Module__loggerFxn8__C
000169dc   ti_sysbios_family_arm_m3_Hwi_Module__loggerObj__C
000169e0   ti_sysbios_family_arm_m3_Hwi_NUM_INTERRUPTS__C
000169e4   ti_sysbios_family_arm_m3_Hwi_Object__count__C
000169e8   ti_sysbios_family_arm_m3_Hwi_ccr__C
000169ec   ti_sysbios_family_arm_m3_Hwi_disablePriority__C
000169f0   ti_sysbios_family_arm_m3_Hwi_excHandlerFunc__C
000169f4   ti_sysbios_family_arm_m3_Hwi_excHookFuncs__C
000169f8   ti_sysbios_family_arm_m3_Hwi_nullIsrFunc__C
000169fc   ti_sysbios_family_arm_m3_Hwi_numSparseInterrupts__C
00016a00   ti_sysbios_family_arm_m3_Hwi_priGroup__C
00016a04   ti_sysbios_family_arm_m3_TaskSupport_stackAlignment__C
00016a08   ti_sysbios_gates_GateMutex_A_badContext__C
00016a0c   ti_sysbios_gates_GateMutex_Instance_State_sem__O
00016a10   ti_sysbios_gates_GateMutex_Module__diagsEnabled__C
00016a14   ti_sysbios_gates_GateMutex_Module__diagsIncluded__C
00016a18   ti_sysbios_gates_GateMutex_Module__diagsMask__C
00016a1c   ti_sysbios_hal_Hwi_E_stackOverflow__C
00016a20   ti_sysbios_heaps_HeapMem_A_align__C
00016a24   ti_sysbios_heaps_HeapMem_A_heapSize__C
00016a28   ti_sysbios_heaps_HeapMem_A_invalidFree__C
00016a2c   ti_sysbios_heaps_HeapMem_A_zeroBlock__C
00016a30   ti_sysbios_heaps_HeapMem_E_memory__C
00016a34   ti_sysbios_heaps_HeapMem_Module__diagsEnabled__C
00016a38   ti_sysbios_heaps_HeapMem_Module__diagsIncluded__C
00016a3c   ti_sysbios_heaps_HeapMem_Module__diagsMask__C
00016a40   ti_sysbios_heaps_HeapMem_Module__gateObj__C
00016a44   ti_sysbios_heaps_HeapMem_Object__count__C
00016a48   ti_sysbios_heaps_HeapMem_reqAlign__C
00016a4c   ti_sysbios_knl_Clock_A_badThreadType__C
00016a50   ti_sysbios_knl_Clock_LM_begin__C
00016a54   ti_sysbios_knl_Clock_LM_tick__C
00016a58   ti_sysbios_knl_Clock_LW_delayed__C
00016a5c   ti_sysbios_knl_Clock_Module_State_clockQ__O
00016a60   ti_sysbios_knl_Clock_Module__diagsEnabled__C
00016a64   ti_sysbios_knl_Clock_Module__diagsIncluded__C
00016a68   ti_sysbios_knl_Clock_Module__diagsMask__C
00016a6c   ti_sysbios_knl_Clock_Module__loggerFxn1__C
00016a70   ti_sysbios_knl_Clock_Module__loggerFxn2__C
00016a74   ti_sysbios_knl_Clock_Module__loggerObj__C
00016a78   ti_sysbios_knl_Semaphore_A_badContext__C
00016a7c   ti_sysbios_knl_Semaphore_A_noEvents__C
00016a80   ti_sysbios_knl_Semaphore_A_overflow__C
00016a84   ti_sysbios_knl_Semaphore_A_pendTaskDisabled__C
00016a88   ti_sysbios_knl_Semaphore_Instance_State_pendQ__O
00016a8c   ti_sysbios_knl_Semaphore_LM_pend__C
00016a90   ti_sysbios_knl_Semaphore_LM_post__C
00016a94   ti_sysbios_knl_Semaphore_Module__diagsEnabled__C
00016a98   ti_sysbios_knl_Semaphore_Module__diagsIncluded__C
00016a9c   ti_sysbios_knl_Semaphore_Module__diagsMask__C
00016aa0   ti_sysbios_knl_Semaphore_Module__loggerFxn2__C
00016aa4   ti_sysbios_knl_Semaphore_Module__loggerFxn4__C
00016aa8   ti_sysbios_knl_Semaphore_Module__loggerObj__C
00016aac   ti_sysbios_knl_Swi_A_badPriority__C
00016ab0   ti_sysbios_knl_Swi_LD_end__C
00016ab4   ti_sysbios_knl_Swi_LM_begin__C
00016ab8   ti_sysbios_knl_Swi_LM_post__C
00016abc   ti_sysbios_knl_Swi_Module__diagsEnabled__C
00016ac0   ti_sysbios_knl_Swi_Module__diagsIncluded__C
00016ac4   ti_sysbios_knl_Swi_Module__diagsMask__C
00016ac8   ti_sysbios_knl_Swi_Module__loggerFxn1__C
00016acc   ti_sysbios_knl_Swi_Module__loggerFxn4__C
00016ad0   ti_sysbios_knl_Swi_Module__loggerObj__C
00016ad4   ti_sysbios_knl_Swi_Object__count__C
00016ad8   ti_sysbios_knl_Swi_numPriorities__C
00016adc   ti_sysbios_knl_Task_A_badPriority__C
00016ae0   ti_sysbios_knl_Task_A_badTaskState__C
00016ae4   ti_sysbios_knl_Task_A_badThreadType__C
00016ae8   ti_sysbios_knl_Task_A_badTimeout__C
00016aec   ti_sysbios_knl_Task_A_noPendElem__C
00016af0   ti_sysbios_knl_Task_A_sleepTaskDisabled__C
00016af4   ti_sysbios_knl_Task_E_deleteNotAllowed__C
00016af8   ti_sysbios_knl_Task_E_spOutOfBounds__C
00016afc   ti_sysbios_knl_Task_E_stackOverflow__C
00016b00   ti_sysbios_knl_Task_LD_block__C
00016b04   ti_sysbios_knl_Task_LD_exit__C
00016b08   ti_sysbios_knl_Task_LD_ready__C
00016b0c   ti_sysbios_knl_Task_LM_setPri__C
00016b10   ti_sysbios_knl_Task_LM_sleep__C
00016b14   ti_sysbios_knl_Task_LM_switch__C
00016b18   ti_sysbios_knl_Task_Module_State_inactiveQ__O
00016b1c   ti_sysbios_knl_Task_Module_State_terminatedQ__O
00016b20   ti_sysbios_knl_Task_Module__diagsEnabled__C
00016b24   ti_sysbios_knl_Task_Module__diagsIncluded__C
00016b28   ti_sysbios_knl_Task_Module__diagsMask__C
00016b2c   ti_sysbios_knl_Task_Module__loggerFxn2__C
00016b30   ti_sysbios_knl_Task_Module__loggerFxn4__C
00016b34   ti_sysbios_knl_Task_Module__loggerObj__C
00016b38   ti_sysbios_knl_Task_Object__count__C
00016b3c   ti_sysbios_knl_Task_Object__heap__C
00016b40   ti_sysbios_knl_Task_allBlockedFunc__C
00016b44   ti_sysbios_knl_Task_defaultStackHeap__C
00016b48   ti_sysbios_knl_Task_defaultStackSize__C
00016b4c   ti_sysbios_knl_Task_numConstructedTasks__C
00016b50   ti_sysbios_knl_Task_numPriorities__C
00016b54   xdc_runtime_Assert_E_assertFailed__C
00016b58   xdc_runtime_Core_A_initializedParams__C
00016b5c   xdc_runtime_Core_Module__diagsEnabled__C
00016b60   xdc_runtime_Core_Module__diagsIncluded__C
00016b64   xdc_runtime_Core_Module__diagsMask__C
00016b68   xdc_runtime_Error_E_memory__C
00016b6c   xdc_runtime_Error_Module__diagsEnabled__C
00016b70   xdc_runtime_Error_Module__diagsIncluded__C
00016b74   xdc_runtime_Error_Module__diagsMask__C
00016b78   xdc_runtime_Error_Module__loggerFxn8__C
00016b7c   xdc_runtime_Error_Module__loggerObj__C
00016b80   xdc_runtime_Error_policyFxn__C
00016b84   xdc_runtime_Error_raiseHook__C
00016b88   xdc_runtime_IGateProvider_Interface__BASE__C
00016b8c   xdc_runtime_IHeap_Interface__BASE__C
00016b90   xdc_runtime_IModule_Interface__BASE__C
00016b94   xdc_runtime_Log_L_error__C
00016b98   xdc_runtime_Memory_defaultHeapInstance__C
00016b9c   xdc_runtime_Startup_execImpl__C
00016ba0   xdc_runtime_Startup_maxPasses__C
00016ba4   xdc_runtime_Startup_sfxnRts__C
00016ba8   xdc_runtime_Startup_sfxnTab__C
00016bac   xdc_runtime_SysMin_bufSize__C
00016bb0   xdc_runtime_SysMin_outputFunc__C
00016bb4   xdc_runtime_System_Module__gateObj__C
00016bb8   xdc_runtime_System_abortFxn__C
00016bbc   xdc_runtime_System_exitFxn__C
00016bc0   xdc_runtime_System_extendFxn__C
00016bc4   xdc_runtime_System_maxAtexitHandlers__C
00016bc8   xdc_runtime_Text_charTab__C
00016bcc   xdc_runtime_Text_nameEmpty__C
00016bd0   xdc_runtime_Text_nameStatic__C
00016bd4   xdc_runtime_Text_nameUnknown__C
00016bd8   xdc_runtime_Text_nodeTab__C
00016bdc   xdc_runtime_Text_visitRopeFxn__C
00016be0   ti_sysbios_hal_Hwi_Module__id__C
00016be2   ti_sysbios_heaps_HeapMem_Module__id__C
00016be4   ti_sysbios_knl_Clock_Module__id__C
00016be6   ti_sysbios_knl_Clock_Module__loggerDefined__C
00016be8   ti_sysbios_knl_Semaphore_Module__id__C
00016bea   ti_sysbios_knl_Semaphore_Module__loggerDefined__C
00016bec   ti_sysbios_knl_Swi_Module__id__C
00016bee   ti_sysbios_knl_Swi_Module__loggerDefined__C
00016bf0   ti_sysbios_knl_Task_Module__id__C
00016bf2   ti_sysbios_knl_Task_Module__loggerDefined__C
00016bf4   ti_sysbios_knl_Task_checkStackFlag__C
00016bf6   ti_sysbios_knl_Task_deleteTerminatedTasks__C
00016bf8   ti_sysbios_knl_Task_initStackFlag__C
00016bfa   xdc_runtime_Core_Module__id__C
00016bfc   xdc_runtime_Error_Module__loggerDefined__C
00016bfe   xdc_runtime_Error_maxDepth__C
00016c00   xdc_runtime_Memory_Module__id__C
00016c02   xdc_runtime_SysMin_flushAtExit__C
00016c04   xdc_runtime_Text_charCnt__C
00016c06   xdc_runtime_Text_isLoaded__C
00016c08   xdc_runtime_Text_registryModsLastId__C
00016c0a   xdc_runtime_Text_unnamedModsLastId__C
00016c0c   xdc_runtime_Error_policy__C
0001725c   __TI_Handler_Table_Base
00017268   __TI_Handler_Table_Limit
00017278   __TI_CINIT_Base
00017290   __TI_CINIT_Limit
20000000   ti_sysbios_family_arm_m3_Hwi_ramVectors
20000380   ti_sysbios_heaps_HeapMem_Instance_State_0_buf__A
20005380   ti_ndk_config_Global_pit
20005428   ti_ndk_config_Global_pitBuffer
20009c28   _ICMPIn
20009c74   PBMQ_free
20009c80   ti_ndk_config_Global_pBufMem
2000d880   ti_ndk_config_Global_pHdrMem
2000db78   ti_sysbios_knl_Task_Instance_State_0_stack__A
2000e378   ti_sysbios_knl_Task_Instance_State_1_stack__A
2000e978   ti_sysbios_knl_Task_Instance_State_2_stack__A
2000ec78   ti_sysbios_family_arm_m3_Hwi_dispatchTable
2000efd8   __CIOBUF_
2000f1f8   tcps
2000f364   __TI_tmpnams
2000f524   xdc_runtime_SysMin_Module_State_0_outbuf__A
2000f5a4   ips
2000f60c   nimu_mcb
2000f66c   _ICMPOut
2000f6f8   vlan_mcb
2000f744   udps
2000f784   BlockCount
2000f7a0   BlockMax
2000f7bc   PageCount
2000f7d8   PageMax
2000f818   raweths
2000f828   raws
2000f838   stkEvent
2000f848   tpseudo
2000f854   upseudo
2000f860   emacObjects
2000f894   _IGMPInDiscard
2000f898   _IGMPInQuery
2000f89c   _IGMPInQueryGroup
2000f8a0   _IGMPInResponse
2000f8a4   _IGMPOutResponse
2000f8a8   g_ulStatus
2000f8b8   raweth_pcb
2000f8bc   ti_sysbios_knl_Task_Instance_State_0_hookEnv__A
2000f8c0   ti_sysbios_knl_Task_Instance_State_1_hookEnv__A
2000f8c4   ti_sysbios_knl_Task_Instance_State_2_hookEnv__A
2000f8c8   ti_ndk_config_Global_Id2Size
2000f8e4   ti_ndk_config_Global_HostName
2000f8e8   LocalIPAddr
2000f8ec   LocalIPMask
2000f8f0   GatewayIP
2000f8f4   DomainName
2000f938   ti_sysbios_family_arm_lm4_Timer_Module__root__V
2000f940   ti_sysbios_family_arm_lm4_Timer_Module_State_0_handles__A
2000f960   ti_sysbios_family_arm_lm4_Timer_Module__state__V
2000f96c   ti_sysbios_family_arm_m3_Hwi_Module__root__V
2000f974   ti_sysbios_family_arm_m3_Hwi_Object__table__V
2000f98c   ti_sysbios_family_arm_m3_Hwi_Module_State_0_excActive__A
2000f990   ti_sysbios_family_arm_m3_Hwi_Module_State_0_excContext__A
2000f994   ti_sysbios_family_arm_m3_Hwi_Module_State_0_excStack__A
2000f998   ti_sysbios_gates_GateHwi_Module__root__V
2000f9a0   ti_sysbios_gates_GateHwi_Object__table__V
2000f9a4   ti_sysbios_gates_GateMutex_Module__root__V
2000f9ac   ti_sysbios_hal_Hwi_Module__root__V
2000f9b4   ti_sysbios_heaps_HeapMem_Module__root__V
2000f9bc   ti_sysbios_heaps_HeapMem_Object__table__V
2000f9d4   ti_sysbios_knl_Clock_Module__root__V
2000f9dc   ti_sysbios_knl_Queue_Module__root__V
2000f9e4   ti_sysbios_knl_Semaphore_Module__root__V
2000f9ec   ti_sysbios_knl_Swi_Module__root__V
2000f9f4   ti_sysbios_knl_Swi_Module__state__V
2000fa10   ti_sysbios_knl_Task_Module__root__V
2000fa18   ti_sysbios_knl_Task_Module_State_0_idleTask__A
2000fa1c   xdc_runtime_Error_Module__state__V
2000fa20   xdc_runtime_Memory_Module__state__V
2000fa24   xdc_runtime_Registry_Module__state__V
2000fa2c   xdc_runtime_Startup_Module__state__V
2000fa34   xdc_runtime_SysMin_Module__state__V
2000fa40   xdc_runtime_System_Module_State_0_atexitHandlers__A
2000fa60   xdc_runtime_System_Module__state__V
2000fa68   xdc_runtime_Text_Module__state__V
2000fa70   __xdc__init__addr
2000fa74   _ftable
2000fb64   ti_sysbios_knl_Task_Object__table__V
2000fbfc   TSK_idle
2000fd18   _ipcfg
2000fdcc   ti_sysbios_knl_Swi_Module_State_0_readyQ__A
2000fe4c   ti_sysbios_knl_Task_Module_State_0_readyQ__A
2000ff1c   ti_sysbios_knl_Task_Module__state__V
2000ffe0   ti_sysbios_family_arm_lm4_Timer_Module_State_0_device__A
20010020   ti_sysbios_family_arm_lm4_Timer_Object__table__V
20010060   ti_sysbios_gates_GateMutex_Object__table__V
200100cc   ti_sysbios_family_arm_m3_Hwi_Module__state__V
20010100   enablePrefetch
20010104   phyCounter
20010164   ti_sysbios_knl_Swi_Object__table__V
20010194   ti_sysbios_knl_Clock_Module__state__V
200101c0   pstrMsgName
200101e8   _oscfg
2001020c   PITCount
20010210   PITUsed
20010214   PITHigh
20010230   ti_sysbios_BIOS_Module__state__V
200102b4   NIMUDeviceTable
200102bc   macAddress
200102c4   __TI_ft_end
200102c8   __aeabi_stdin
200102cc   __aeabi_stdout
200102d0   __aeabi_stderr
200102dc   _IGMPForceVersion1
200102f8   _lock
200102fc   _unlock
20010300   __TI_cleanup_ptr
20010304   __TI_dtors_ptr
20010310   _ICMPInErrors
20010314   _ICMPOutErrors
20010318   _IPExecuting
20010330   tcp_iss
20010334   ptTimeFirst
2001035c   main_func_sp
20010364   _IPReasmPtr
20010370   __stack
20010570   __STACK_TOP
20010b70   __STACK_END
40000400   ti_sysbios_family_arm_ducati_CTM_ctm
e000e000   ti_sysbios_family_arm_m3_Hwi_nvic
ffffffff   __binit__
ffffffff   __c_args__
ffffffff   binit
UNDEFED    SHT$$INIT_ARRAY$$Base
UNDEFED    SHT$$INIT_ARRAY$$Limit

[1128 symbols]
